ccollections
OrderedDict
p1
((lp2
(lp3
(S'AX Missile Rack'
p4
NS'2'
S'B'
tp5
a(dp6
S'mass'
p7
I4
saa(lp8
(g4
NS'3'
S'A'
tp9
a(dp10
g7
I8
saa(lp11
(S'AX Multi-Cannon'
p12
NS'2'
S'E'
tp13
a(dp14
g7
I4
saa(lp15
(g12
NS'2'
S'F'
tp16
a(dp17
g7
I4
saa(lp18
(g12
NS'3'
S'C'
tp19
a(dp20
g7
I8
saa(lp21
(g12
NS'3'
S'E'
tp22
a(dp23
g7
I8
saa(lp24
(S'Advanced Discovery Scanner'
p25
NS'1'
S'C'
tp26
a(dp27
g7
I2
saa(lp28
(S'Advanced Plasma Accelerator'
p29
NS'3'
S'B'
tp30
a(dp31
g7
I8
saa(lp32
(S'Auto Field-Maintenance Unit'
p33
NS'1'
S'A'
tp34
a(dp35
g7
I0
saa(lp36
(g33
NS'1'
S'B'
tp37
a(dp38
g7
I0
saa(lp39
(g33
NS'1'
S'C'
tp40
a(dp41
g7
I0
saa(lp42
(g33
NS'1'
S'D'
tp43
a(dp44
g7
I0
saa(lp45
(g33
NS'1'
S'E'
tp46
a(dp47
g7
I0
saa(lp48
(g33
NS'2'
S'A'
tp49
a(dp50
g7
I0
saa(lp51
(g33
NS'2'
S'B'
tp52
a(dp53
g7
I0
saa(lp54
(g33
NS'2'
S'C'
tp55
a(dp56
g7
I0
saa(lp57
(g33
NS'2'
S'D'
tp58
a(dp59
g7
I0
saa(lp60
(g33
NS'2'
S'E'
tp61
a(dp62
g7
I0
saa(lp63
(g33
NS'3'
S'A'
tp64
a(dp65
g7
I0
saa(lp66
(g33
NS'3'
S'B'
tp67
a(dp68
g7
I0
saa(lp69
(g33
NS'3'
S'C'
tp70
a(dp71
g7
I0
saa(lp72
(g33
NS'3'
S'D'
tp73
a(dp74
g7
I0
saa(lp75
(g33
NS'3'
S'E'
tp76
a(dp77
g7
I0
saa(lp78
(g33
NS'4'
S'A'
tp79
a(dp80
g7
I0
saa(lp81
(g33
NS'4'
S'B'
tp82
a(dp83
g7
I0
saa(lp84
(g33
NS'4'
S'C'
tp85
a(dp86
g7
I0
saa(lp87
(g33
NS'4'
S'D'
tp88
a(dp89
g7
I0
saa(lp90
(g33
NS'4'
S'E'
tp91
a(dp92
g7
I0
saa(lp93
(g33
NS'5'
S'A'
tp94
a(dp95
g7
I0
saa(lp96
(g33
NS'5'
S'B'
tp97
a(dp98
g7
I0
saa(lp99
(g33
NS'5'
S'C'
tp100
a(dp101
g7
I0
saa(lp102
(g33
NS'5'
S'D'
tp103
a(dp104
g7
I0
saa(lp105
(g33
NS'5'
S'E'
tp106
a(dp107
g7
I0
saa(lp108
(g33
NS'6'
S'A'
tp109
a(dp110
g7
I0
saa(lp111
(g33
NS'6'
S'B'
tp112
a(dp113
g7
I0
saa(lp114
(g33
NS'6'
S'C'
tp115
a(dp116
g7
I0
saa(lp117
(g33
NS'6'
S'D'
tp118
a(dp119
g7
I0
saa(lp120
(g33
NS'6'
S'E'
tp121
a(dp122
g7
I0
saa(lp123
(g33
NS'7'
S'A'
tp124
a(dp125
g7
I0
saa(lp126
(g33
NS'7'
S'B'
tp127
a(dp128
g7
I0
saa(lp129
(g33
NS'7'
S'C'
tp130
a(dp131
g7
I0
saa(lp132
(g33
NS'7'
S'D'
tp133
a(dp134
g7
I0
saa(lp135
(g33
NS'7'
S'E'
tp136
a(dp137
g7
I0
saa(lp138
(g33
NS'8'
S'A'
tp139
a(dp140
g7
I0
saa(lp141
(g33
NS'8'
S'B'
tp142
a(dp143
g7
I0
saa(lp144
(g33
NS'8'
S'C'
tp145
a(dp146
g7
I0
saa(lp147
(g33
NS'8'
S'D'
tp148
a(dp149
g7
I0
saa(lp150
(g33
NS'8'
S'E'
tp151
a(dp152
g7
I0
saa(lp153
(S'Basic Discovery Scanner'
p154
NS'1'
S'E'
tp155
a(dp156
g7
I2
saa(lp157
(S'Beam Laser'
p158
NS'1'
S'E'
tp159
a(dp160
g7
I2
saa(lp161
(g158
NS'1'
S'F'
tp162
a(dp163
g7
I2
saa(lp164
(g158
NS'2'
S'D'
tp165
a(dp166
g7
I4
saa(lp167
(g158
NS'2'
S'E'
tp168
a(dp169
g7
I4
saa(lp170
(g158
NS'3'
S'C'
tp171
a(dp172
g7
I8
saa(lp173
(g158
NS'3'
S'D'
tp174
a(dp175
g7
I8
saa(lp176
(g158
NS'4'
S'A'
tp177
a(dp178
g7
I16
saa(lp179
(S'Bi-Weave Shield Generator'
p180
NS'1'
S'C'
tp181
a(dp182
g7
F1.3
saa(lp183
(g180
NS'2'
S'C'
tp184
a(dp185
g7
F2.5
saa(lp186
(g180
NS'3'
S'C'
tp187
a(dp188
g7
I5
saa(lp189
(g180
NS'4'
S'C'
tp190
a(dp191
g7
I10
saa(lp192
(g180
NS'5'
S'C'
tp193
a(dp194
g7
I20
saa(lp195
(g180
NS'6'
S'C'
tp196
a(dp197
g7
I40
saa(lp198
(g180
NS'7'
S'C'
tp199
a(dp200
g7
I80
saa(lp201
(g180
NS'8'
S'C'
tp202
a(dp203
g7
I160
saa(lp204
(S'Burst Laser'
p205
NS'1'
S'F'
tp206
a(dp207
g7
I2
saa(lp208
(g205
NS'1'
S'G'
tp209
a(dp210
g7
I2
saa(lp211
(g205
NS'2'
S'E'
tp212
a(dp213
g7
I4
saa(lp214
(g205
NS'2'
S'F'
tp215
a(dp216
g7
I4
saa(lp217
(g205
NS'3'
S'D'
tp218
a(dp219
g7
I8
saa(lp220
(g205
NS'3'
S'E'
tp221
a(dp222
g7
I8
saa(lp223
(g205
NS'4'
S'E'
tp224
a(dp225
g7
I16
saa(lp226
(S'Business Class Passenger Cabin'
p227
NS'3'
S'D'
tp228
a(dp229
g7
I5
saa(lp230
(g227
NS'4'
S'D'
tp231
a(dp232
g7
I10
saa(lp233
(g227
NS'5'
S'D'
tp234
a(dp235
g7
I20
saa(lp236
(g227
NS'6'
S'D'
tp237
a(dp238
g7
I40
saa(lp239
(S'Cannon'
p240
NS'1'
S'D'
tp241
a(dp242
g7
I2
saa(lp243
(g240
NS'1'
S'E'
tp244
a(dp245
g7
I2
saa(lp246
(g240
NS'1'
S'F'
tp247
a(dp248
g7
I2
saa(lp249
(g240
NS'2'
S'D'
tp250
a(dp251
g7
I4
saa(lp252
(g240
NS'2'
S'E'
tp253
a(dp254
g7
I4
saa(lp255
(g240
NS'3'
S'C'
tp256
a(dp257
g7
I8
saa(lp258
(g240
NS'3'
S'D'
tp259
a(dp260
g7
I8
saa(lp261
(g240
NS'4'
S'B'
tp262
a(dp263
g7
I16
saa(lp264
(S'Cargo Rack'
p265
NS'1'
S'E'
tp266
a(dp267
g7
I0
saa(lp268
(g265
NS'2'
S'E'
tp269
a(dp270
g7
I0
saa(lp271
(g265
NS'3'
S'E'
tp272
a(dp273
g7
I0
saa(lp274
(g265
NS'4'
S'E'
tp275
a(dp276
g7
I0
saa(lp277
(g265
NS'5'
S'E'
tp278
a(dp279
g7
I0
saa(lp280
(g265
NS'6'
S'E'
tp281
a(dp282
g7
I0
saa(lp283
(g265
NS'7'
S'E'
tp284
a(dp285
g7
I0
saa(lp286
(g265
NS'8'
S'E'
tp287
a(dp288
g7
I0
saa(lp289
(S'Cargo Scanner'
p290
NS'0'
S'A'
tp291
a(dp292
g7
F1.3
saa(lp293
(g290
NS'0'
S'B'
tp294
a(dp295
g7
F1.3
saa(lp296
(g290
NS'0'
S'C'
tp297
a(dp298
g7
F1.3
saa(lp299
(g290
NS'0'
S'D'
tp300
a(dp301
g7
F1.3
saa(lp302
(g290
NS'0'
S'E'
tp303
a(dp304
g7
F1.3
saa(lp305
(S'Chaff Launcher'
p306
NS'0'
S'I'
tp307
a(dp308
g7
F1.3
saa(lp309
(S'Collector Limpet Controller'
p310
NS'1'
S'A'
tp311
a(dp312
g7
I2
saa(lp313
(g310
NS'1'
S'B'
tp314
a(dp315
g7
I2
saa(lp316
(g310
NS'1'
S'C'
tp317
a(dp318
g7
F1.3
saa(lp319
(g310
NS'1'
S'D'
tp320
a(dp321
g7
F0.5
saa(lp322
(g310
NS'1'
S'E'
tp323
a(dp324
g7
F0.5
saa(lp325
(g310
NS'3'
S'A'
tp326
a(dp327
g7
I8
saa(lp328
(g310
NS'3'
S'B'
tp329
a(dp330
g7
I8
saa(lp331
(g310
NS'3'
S'C'
tp332
a(dp333
g7
I5
saa(lp334
(g310
NS'3'
S'D'
tp335
a(dp336
g7
I2
saa(lp337
(g310
NS'3'
S'E'
tp338
a(dp339
g7
I2
saa(lp340
(g310
NS'5'
S'A'
tp341
a(dp342
g7
I32
saa(lp343
(g310
NS'5'
S'B'
tp344
a(dp345
g7
I32
saa(lp346
(g310
NS'5'
S'C'
tp347
a(dp348
g7
I20
saa(lp349
(g310
NS'5'
S'D'
tp350
a(dp351
g7
I8
saa(lp352
(g310
NS'5'
S'E'
tp353
a(dp354
g7
I8
saa(lp355
(g310
NS'7'
S'A'
tp356
a(dp357
g7
I128
saa(lp358
(g310
NS'7'
S'B'
tp359
a(dp360
g7
I128
saa(lp361
(g310
NS'7'
S'C'
tp362
a(dp363
g7
I80
saa(lp364
(g310
NS'7'
S'D'
tp365
a(dp366
g7
I32
saa(lp367
(g310
NS'7'
S'E'
tp368
a(dp369
g7
I32
saa(lp370
(S'Corrosion Resistant Cargo Rack'
p371
NS'1'
S'E'
tp372
a(dp373
g7
I0
saa(lp374
(g371
NS'1'
S'F'
tp375
a(dp376
g7
I0
saa(lp377
(S'Cytoscrambler Burst Laser'
p378
NS'1'
S'F'
tp379
a(dp380
g7
I2
saa(lp381
(S'Decontamination Limpet Controller'
p382
NS'1'
S'E'
tp383
a(dp384
g7
F1.3
saa(lp385
(g382
NS'3'
S'E'
tp386
a(dp387
g7
I2
saa(lp388
(g382
NS'5'
S'E'
tp389
a(dp390
g7
I20
saa(lp391
(g382
NS'7'
S'E'
tp392
a(dp393
g7
I128
saa(lp394
(S'Detailed Surface Scanner'
p395
NS'1'
S'C'
tp396
a(dp397
g7
F1.3
saa(lp398
(S'Economy Class Passenger Cabin'
p399
NS'2'
S'E'
tp400
a(dp401
g7
F2.5
saa(lp402
(g399
NS'3'
S'E'
tp403
a(dp404
g7
I5
saa(lp405
(g399
NS'4'
S'E'
tp406
a(dp407
g7
I10
saa(lp408
(g399
NS'5'
S'E'
tp409
a(dp410
g7
I20
saa(lp411
(g399
NS'6'
S'E'
tp412
a(dp413
g7
I40
saa(lp414
(S'Electronic Countermeasure'
p415
NS'0'
S'F'
tp416
a(dp417
g7
F1.3
saa(lp418
(S'Enforcer Cannon'
p419
NS'1'
S'F'
tp420
a(dp421
g7
I2
saa(lp422
(S'Enhanced Performance Thrusters'
p423
NS'2'
S'A'
tp424
a(dp425
g7
F2.5
saa(lp426
(g423
NS'3'
S'A'
tp427
a(dp428
g7
I5
saa(lp429
(S'Enzyme Missile Rack'
p430
NS'2'
S'B'
tp431
a(dp432
g7
I4
saa(lp433
(S'Fighter Hangar'
p434
NS'5'
S'D'
tp435
a(dp436
g7
I20
saa(lp437
(g434
NS'6'
S'D'
tp438
a(dp439
g7
I40
saa(lp440
(g434
NS'7'
S'D'
tp441
a(dp442
g7
I60
saa(lp443
(S'First Class Passenger Cabin'
p444
NS'4'
S'C'
tp445
a(dp446
g7
I10
saa(lp447
(g444
NS'5'
S'C'
tp448
a(dp449
g7
I20
saa(lp450
(g444
NS'6'
S'C'
tp451
a(dp452
g7
I40
saa(lp453
(S'Fragment Cannon'
p454
NS'1'
S'E'
tp455
a(dp456
g7
I2
saa(lp457
(g454
NS'2'
S'A'
tp458
a(dp459
g7
I4
saa(lp460
(g454
NS'2'
S'D'
tp461
a(dp462
g7
I4
saa(lp463
(g454
NS'3'
S'C'
tp464
a(dp465
g7
I8
saa(lp466
(S'Frame Shift Drive'
p467
NS'2'
S'A'
tp468
a(dp469
S'optmass'
p470
I90
sS'fuelmul'
p471
F0.012
sg7
F2.5
sS'maxfuel'
p472
F0.90000000000000002
sS'fuelpower'
p473
I2
saa(lp474
(g467
NS'2'
S'B'
tp475
a(dp476
g470
I75
sg471
F0.01
sg7
I4
sg472
F0.80000000000000004
sg473
I2
saa(lp477
(g467
NS'2'
S'C'
tp478
a(dp479
g470
I60
sg471
F0.0080000000000000002
sg7
F2.5
sg472
F0.59999999999999998
sg473
I2
saa(lp480
(g467
NS'2'
S'D'
tp481
a(dp482
g470
I54
sg471
F0.01
sg7
I1
sg472
F0.59999999999999998
sg473
I2
saa(lp483
(g467
NS'2'
S'E'
tp484
a(dp485
g470
I48
sg471
F0.010999999999999999
sg7
F2.5
sg472
F0.59999999999999998
sg473
I2
saa(lp486
(g467
NS'3'
S'A'
tp487
a(dp488
g470
I150
sg471
F0.012
sg7
I5
sg472
F1.8
sg473
F2.1499999999999999
saa(lp489
(g467
NS'3'
S'B'
tp490
a(dp491
g470
I125
sg471
F0.01
sg7
I8
sg472
F1.5
sg473
F2.1499999999999999
saa(lp492
(g467
NS'3'
S'C'
tp493
a(dp494
g470
I100
sg471
F0.0080000000000000002
sg7
I5
sg472
F1.2
sg473
F2.1499999999999999
saa(lp495
(g467
NS'3'
S'D'
tp496
a(dp497
g470
I90
sg471
F0.01
sg7
I2
sg472
F1.2
sg473
F2.1499999999999999
saa(lp498
(g467
NS'3'
S'E'
tp499
a(dp500
g470
I80
sg471
F0.010999999999999999
sg7
I5
sg472
F1.2
sg473
F2.1499999999999999
saa(lp501
(g467
NS'4'
S'A'
tp502
a(dp503
g470
I525
sg471
F0.012
sg7
I10
sg472
I3
sg473
F2.2999999999999998
saa(lp504
(g467
NS'4'
S'B'
tp505
a(dp506
g470
F437.5
sg471
F0.01
sg7
I16
sg472
F2.5
sg473
F2.2999999999999998
saa(lp507
(g467
NS'4'
S'C'
tp508
a(dp509
g470
I350
sg471
F0.0080000000000000002
sg7
I10
sg472
I2
sg473
F2.2999999999999998
saa(lp510
(g467
NS'4'
S'D'
tp511
a(dp512
g470
I315
sg471
F0.01
sg7
I4
sg472
I2
sg473
F2.2999999999999998
saa(lp513
(g467
NS'4'
S'E'
tp514
a(dp515
g470
I280
sg471
F0.010999999999999999
sg7
I10
sg472
I2
sg473
F2.2999999999999998
saa(lp516
(g467
NS'5'
S'A'
tp517
a(dp518
g470
I1050
sg471
F0.012
sg7
I20
sg472
I5
sg473
F2.4500000000000002
saa(lp519
(g467
NS'5'
S'B'
tp520
a(dp521
g470
I875
sg471
F0.01
sg7
I32
sg472
F4.0999999999999996
sg473
F2.4500000000000002
saa(lp522
(g467
NS'5'
S'C'
tp523
a(dp524
g470
I700
sg471
F0.0080000000000000002
sg7
I20
sg472
F3.2999999999999998
sg473
F2.4500000000000002
saa(lp525
(g467
NS'5'
S'D'
tp526
a(dp527
g470
I630
sg471
F0.01
sg7
I8
sg472
F3.2999999999999998
sg473
F2.4500000000000002
saa(lp528
(g467
NS'5'
S'E'
tp529
a(dp530
g470
I560
sg471
F0.010999999999999999
sg7
I20
sg472
F3.2999999999999998
sg473
F2.4500000000000002
saa(lp531
(g467
NS'6'
S'A'
tp532
a(dp533
g470
I1800
sg471
F0.012
sg7
I40
sg472
I8
sg473
F2.6000000000000001
saa(lp534
(g467
NS'6'
S'B'
tp535
a(dp536
g470
I1500
sg471
F0.01
sg7
I64
sg472
F6.5999999999999996
sg473
F2.6000000000000001
saa(lp537
(g467
NS'6'
S'C'
tp538
a(dp539
g470
I1200
sg471
F0.0080000000000000002
sg7
I40
sg472
F5.2999999999999998
sg473
F2.6000000000000001
saa(lp540
(g467
NS'6'
S'D'
tp541
a(dp542
g470
I1080
sg471
F0.01
sg7
I16
sg472
F5.2999999999999998
sg473
F2.6000000000000001
saa(lp543
(g467
NS'6'
S'E'
tp544
a(dp545
g470
I960
sg471
F0.010999999999999999
sg7
I40
sg472
F5.2999999999999998
sg473
F2.6000000000000001
saa(lp546
(g467
NS'7'
S'A'
tp547
a(dp548
g470
I2700
sg471
F0.012
sg7
I80
sg472
F12.800000000000001
sg473
F2.75
saa(lp549
(g467
NS'7'
S'B'
tp550
a(dp551
g470
I2250
sg471
F0.01
sg7
I128
sg472
F10.6
sg473
F2.75
saa(lp552
(g467
NS'7'
S'C'
tp553
a(dp554
g470
I1800
sg471
F0.0080000000000000002
sg7
I80
sg472
F8.5
sg473
F2.75
saa(lp555
(g467
NS'7'
S'D'
tp556
a(dp557
g470
I1620
sg471
F0.01
sg7
I32
sg472
F8.5
sg473
F2.75
saa(lp558
(g467
NS'7'
S'E'
tp559
a(dp560
g470
I1440
sg471
F0.010999999999999999
sg7
I80
sg472
F8.5
sg473
F2.75
saa(lp561
(g467
NS'8'
S'A'
tp562
a(dp563
g470
I0
sg471
F0.012
sg7
I160
sg472
I0
sg473
F2.8999999999999999
saa(lp564
(g467
NS'8'
S'B'
tp565
a(dp566
g470
I0
sg471
F0.01
sg7
I256
sg472
I0
sg473
F2.8999999999999999
saa(lp567
(g467
NS'8'
S'C'
tp568
a(dp569
g470
I0
sg471
F0.0080000000000000002
sg7
I160
sg472
I0
sg473
F2.8999999999999999
saa(lp570
(g467
NS'8'
S'D'
tp571
a(dp572
g470
I0
sg471
F0.01
sg7
I64
sg472
I0
sg473
F2.8999999999999999
saa(lp573
(g467
NS'8'
S'E'
tp574
a(dp575
g470
I0
sg471
F0.010999999999999999
sg7
I160
sg472
I0
sg473
F2.8999999999999999
saa(lp576
(S'Frame Shift Drive Interdictor'
p577
NS'1'
S'A'
tp578
a(dp579
g7
F1.3
saa(lp580
(g577
NS'1'
S'B'
tp581
a(dp582
g7
I2
saa(lp583
(g577
NS'1'
S'C'
tp584
a(dp585
g7
F1.3
saa(lp586
(g577
NS'1'
S'D'
tp587
a(dp588
g7
F0.5
saa(lp589
(g577
NS'1'
S'E'
tp590
a(dp591
g7
F1.3
saa(lp592
(g577
NS'2'
S'A'
tp593
a(dp594
g7
F2.5
saa(lp595
(g577
NS'2'
S'B'
tp596
a(dp597
g7
I4
saa(lp598
(g577
NS'2'
S'C'
tp599
a(dp600
g7
F2.5
saa(lp601
(g577
NS'2'
S'D'
tp602
a(dp603
g7
I1
saa(lp604
(g577
NS'2'
S'E'
tp605
a(dp606
g7
F2.5
saa(lp607
(g577
NS'3'
S'A'
tp608
a(dp609
g7
I5
saa(lp610
(g577
NS'3'
S'B'
tp611
a(dp612
g7
I8
saa(lp613
(g577
NS'3'
S'C'
tp614
a(dp615
g7
I5
saa(lp616
(g577
NS'3'
S'D'
tp617
a(dp618
g7
I2
saa(lp619
(g577
NS'3'
S'E'
tp620
a(dp621
g7
I5
saa(lp622
(g577
NS'4'
S'A'
tp623
a(dp624
g7
I10
saa(lp625
(g577
NS'4'
S'B'
tp626
a(dp627
g7
I16
saa(lp628
(g577
NS'4'
S'C'
tp629
a(dp630
g7
I10
saa(lp631
(g577
NS'4'
S'D'
tp632
a(dp633
g7
I4
saa(lp634
(g577
NS'4'
S'E'
tp635
a(dp636
g7
I10
saa(lp637
(S'Frame Shift Wake Scanner'
p638
NS'0'
S'A'
tp639
a(dp640
g7
F1.3
saa(lp641
(g638
NS'0'
S'B'
tp642
a(dp643
g7
F1.3
saa(lp644
(g638
NS'0'
S'C'
tp645
a(dp646
g7
F1.3
saa(lp647
(g638
NS'0'
S'D'
tp648
a(dp649
g7
F1.3
saa(lp650
(g638
NS'0'
S'E'
tp651
a(dp652
g7
F1.3
saa(lp653
(S'Fuel Scoop'
p654
NS'1'
S'A'
tp655
a(dp656
g7
I0
saa(lp657
(g654
NS'1'
S'B'
tp658
a(dp659
g7
I0
saa(lp660
(g654
NS'1'
S'C'
tp661
a(dp662
g7
I0
saa(lp663
(g654
NS'1'
S'D'
tp664
a(dp665
g7
I0
saa(lp666
(g654
NS'1'
S'E'
tp667
a(dp668
g7
I0
saa(lp669
(g654
NS'2'
S'A'
tp670
a(dp671
g7
I0
saa(lp672
(g654
NS'2'
S'B'
tp673
a(dp674
g7
I0
saa(lp675
(g654
NS'2'
S'C'
tp676
a(dp677
g7
I0
saa(lp678
(g654
NS'2'
S'D'
tp679
a(dp680
g7
I0
saa(lp681
(g654
NS'2'
S'E'
tp682
a(dp683
g7
I0
saa(lp684
(g654
NS'3'
S'A'
tp685
a(dp686
g7
I0
saa(lp687
(g654
NS'3'
S'B'
tp688
a(dp689
g7
I0
saa(lp690
(g654
NS'3'
S'C'
tp691
a(dp692
g7
I0
saa(lp693
(g654
NS'3'
S'D'
tp694
a(dp695
g7
I0
saa(lp696
(g654
NS'3'
S'E'
tp697
a(dp698
g7
I0
saa(lp699
(g654
NS'4'
S'A'
tp700
a(dp701
g7
I0
saa(lp702
(g654
NS'4'
S'B'
tp703
a(dp704
g7
I0
saa(lp705
(g654
NS'4'
S'C'
tp706
a(dp707
g7
I0
saa(lp708
(g654
NS'4'
S'D'
tp709
a(dp710
g7
I0
saa(lp711
(g654
NS'4'
S'E'
tp712
a(dp713
g7
I0
saa(lp714
(g654
NS'5'
S'A'
tp715
a(dp716
g7
I0
saa(lp717
(g654
NS'5'
S'B'
tp718
a(dp719
g7
I0
saa(lp720
(g654
NS'5'
S'C'
tp721
a(dp722
g7
I0
saa(lp723
(g654
NS'5'
S'D'
tp724
a(dp725
g7
I0
saa(lp726
(g654
NS'5'
S'E'
tp727
a(dp728
g7
I0
saa(lp729
(g654
NS'6'
S'A'
tp730
a(dp731
g7
I0
saa(lp732
(g654
NS'6'
S'B'
tp733
a(dp734
g7
I0
saa(lp735
(g654
NS'6'
S'C'
tp736
a(dp737
g7
I0
saa(lp738
(g654
NS'6'
S'D'
tp739
a(dp740
g7
I0
saa(lp741
(g654
NS'6'
S'E'
tp742
a(dp743
g7
I0
saa(lp744
(g654
NS'7'
S'A'
tp745
a(dp746
g7
I0
saa(lp747
(g654
NS'7'
S'B'
tp748
a(dp749
g7
I0
saa(lp750
(g654
NS'7'
S'C'
tp751
a(dp752
g7
I0
saa(lp753
(g654
NS'7'
S'D'
tp754
a(dp755
g7
I0
saa(lp756
(g654
NS'7'
S'E'
tp757
a(dp758
g7
I0
saa(lp759
(g654
NS'8'
S'A'
tp760
a(dp761
g7
I0
saa(lp762
(g654
NS'8'
S'B'
tp763
a(dp764
g7
I0
saa(lp765
(g654
NS'8'
S'C'
tp766
a(dp767
g7
I0
saa(lp768
(g654
NS'8'
S'D'
tp769
a(dp770
g7
I0
saa(lp771
(g654
NS'8'
S'E'
tp772
a(dp773
g7
I0
saa(lp774
(S'Fuel Tank'
p775
NS'1'
S'C'
tp776
a(dp777
g7
I0
saa(lp778
(g775
NS'2'
S'C'
tp779
a(dp780
g7
I0
saa(lp781
(g775
NS'3'
S'C'
tp782
a(dp783
g7
I0
saa(lp784
(g775
NS'4'
S'C'
tp785
a(dp786
g7
I0
saa(lp787
(g775
NS'5'
S'C'
tp788
a(dp789
g7
I0
saa(lp790
(g775
NS'6'
S'C'
tp791
a(dp792
g7
I0
saa(lp793
(g775
NS'7'
S'C'
tp794
a(dp795
g7
I0
saa(lp796
(g775
NS'8'
S'C'
tp797
a(dp798
g7
I0
saa(lp799
(S'Fuel Transfer Limpet Controller'
p800
NS'1'
S'A'
tp801
a(dp802
g7
F1.3
saa(lp803
(g800
NS'1'
S'B'
tp804
a(dp805
g7
I2
saa(lp806
(g800
NS'1'
S'C'
tp807
a(dp808
g7
F1.3
saa(lp809
(g800
NS'1'
S'D'
tp810
a(dp811
g7
F0.5
saa(lp812
(g800
NS'1'
S'E'
tp813
a(dp814
g7
F1.3
saa(lp815
(g800
NS'3'
S'A'
tp816
a(dp817
g7
I5
saa(lp818
(g800
NS'3'
S'B'
tp819
a(dp820
g7
I8
saa(lp821
(g800
NS'3'
S'C'
tp822
a(dp823
g7
I5
saa(lp824
(g800
NS'3'
S'D'
tp825
a(dp826
g7
I2
saa(lp827
(g800
NS'3'
S'E'
tp828
a(dp829
g7
I5
saa(lp830
(g800
NS'5'
S'A'
tp831
a(dp832
g7
I20
saa(lp833
(g800
NS'5'
S'B'
tp834
a(dp835
g7
I32
saa(lp836
(g800
NS'5'
S'C'
tp837
a(dp838
g7
I20
saa(lp839
(g800
NS'5'
S'D'
tp840
a(dp841
g7
I8
saa(lp842
(g800
NS'5'
S'E'
tp843
a(dp844
g7
I20
saa(lp845
(g800
NS'7'
S'A'
tp846
a(dp847
g7
I80
saa(lp848
(g800
NS'7'
S'B'
tp849
a(dp850
g7
I128
saa(lp851
(g800
NS'7'
S'C'
tp852
a(dp853
g7
I80
saa(lp854
(g800
NS'7'
S'D'
tp855
a(dp856
g7
I32
saa(lp857
(g800
NS'7'
S'E'
tp858
a(dp859
g7
I80
saa(lp860
(S'Guardian Power Plant'
p861
NS'2'
S'A'
tp862
a(dp863
g7
F1.5
saa(lp864
(g861
NS'3'
S'A'
tp865
a(dp866
g7
F2.8999999999999999
saa(lp867
(g861
NS'4'
S'A'
tp868
a(dp869
g7
F5.9000000000000004
saa(lp870
(g861
NS'5'
S'A'
tp871
a(dp872
g7
F11.699999999999999
saa(lp873
(g861
NS'6'
S'A'
tp874
a(dp875
g7
F23.399999999999999
saa(lp876
(g861
NS'7'
S'A'
tp877
a(dp878
g7
F46.799999999999997
saa(lp879
(g861
NS'8'
S'A'
tp880
a(dp881
g7
F93.599999999999994
saa(lp882
(S'Hatch Breaker Limpet Controller'
p883
NS'1'
S'A'
tp884
a(dp885
g7
F1.3
saa(lp886
(g883
NS'1'
S'B'
tp887
a(dp888
g7
I2
saa(lp889
(g883
NS'1'
S'C'
tp890
a(dp891
g7
F1.3
saa(lp892
(g883
NS'1'
S'D'
tp893
a(dp894
g7
F0.5
saa(lp895
(g883
NS'1'
S'E'
tp896
a(dp897
g7
F1.3
saa(lp898
(g883
NS'3'
S'A'
tp899
a(dp900
g7
I5
saa(lp901
(g883
NS'3'
S'B'
tp902
a(dp903
g7
I8
saa(lp904
(g883
NS'3'
S'C'
tp905
a(dp906
g7
I5
saa(lp907
(g883
NS'3'
S'D'
tp908
a(dp909
g7
I2
saa(lp910
(g883
NS'3'
S'E'
tp911
a(dp912
g7
I5
saa(lp913
(g883
NS'5'
S'A'
tp914
a(dp915
g7
I20
saa(lp916
(g883
NS'5'
S'B'
tp917
a(dp918
g7
I32
saa(lp919
(g883
NS'5'
S'C'
tp920
a(dp921
g7
I20
saa(lp922
(g883
NS'5'
S'D'
tp923
a(dp924
g7
I8
saa(lp925
(g883
NS'5'
S'E'
tp926
a(dp927
g7
I20
saa(lp928
(g883
NS'7'
S'A'
tp929
a(dp930
g7
I90
saa(lp931
(g883
NS'7'
S'B'
tp932
a(dp933
g7
I128
saa(lp934
(g883
NS'7'
S'C'
tp935
a(dp936
g7
I80
saa(lp937
(g883
NS'7'
S'D'
tp938
a(dp939
g7
I32
saa(lp940
(g883
NS'7'
S'E'
tp941
a(dp942
g7
I80
saa(lp943
(S'Heat Sink Launcher'
p944
NS'0'
S'I'
tp945
a(dp946
g7
F1.3
saa(lp947
(S'Hull Reinforcement Package'
p948
NS'1'
S'D'
tp949
a(dp950
g7
I1
saa(lp951
(g948
NS'1'
S'E'
tp952
a(dp953
g7
I2
saa(lp954
(g948
NS'2'
S'D'
tp955
a(dp956
g7
I2
saa(lp957
(g948
NS'2'
S'E'
tp958
a(dp959
g7
I4
saa(lp960
(g948
NS'3'
S'D'
tp961
a(dp962
g7
I4
saa(lp963
(g948
NS'3'
S'E'
tp964
a(dp965
g7
I8
saa(lp966
(g948
NS'4'
S'D'
tp967
a(dp968
g7
I8
saa(lp969
(g948
NS'4'
S'E'
tp970
a(dp971
g7
I16
saa(lp972
(g948
NS'5'
S'D'
tp973
a(dp974
g7
I16
saa(lp975
(g948
NS'5'
S'E'
tp976
a(dp977
g7
I32
saa(lp978
(S'Imperial Hammer Rail Gun'
p979
NS'2'
S'B'
tp980
a(dp981
g7
I4
saa(lp982
(S'Intermediate Discovery Scanner'
p983
NS'1'
S'D'
tp984
a(dp985
g7
I2
saa(lp986
(S'Kill Warrant Scanner'
p987
NS'0'
S'A'
tp988
a(dp989
g7
F1.3
saa(lp990
(g987
NS'0'
S'B'
tp991
a(dp992
g7
F1.3
saa(lp993
(g987
NS'0'
S'C'
tp994
a(dp995
g7
F1.3
saa(lp996
(g987
NS'0'
S'D'
tp997
a(dp998
g7
F1.3
saa(lp999
(g987
NS'0'
S'E'
tp1000
a(dp1001
g7
F1.3
saa(lp1002
(S'Life Support'
p1003
NS'1'
S'A'
tp1004
a(dp1005
g7
F1.3
saa(lp1006
(g1003
NS'1'
S'B'
tp1007
a(dp1008
g7
I2
saa(lp1009
(g1003
NS'1'
S'C'
tp1010
a(dp1011
g7
F1.3
saa(lp1012
(g1003
NS'1'
S'D'
tp1013
a(dp1014
g7
F0.5
saa(lp1015
(g1003
NS'1'
S'E'
tp1016
a(dp1017
g7
F1.3
saa(lp1018
(g1003
NS'2'
S'A'
tp1019
a(dp1020
g7
F2.5
saa(lp1021
(g1003
NS'2'
S'B'
tp1022
a(dp1023
g7
I4
saa(lp1024
(g1003
NS'2'
S'C'
tp1025
a(dp1026
g7
F2.5
saa(lp1027
(g1003
NS'2'
S'D'
tp1028
a(dp1029
g7
I1
saa(lp1030
(g1003
NS'2'
S'E'
tp1031
a(dp1032
g7
F2.5
saa(lp1033
(g1003
NS'3'
S'A'
tp1034
a(dp1035
g7
I5
saa(lp1036
(g1003
NS'3'
S'B'
tp1037
a(dp1038
g7
I8
saa(lp1039
(g1003
NS'3'
S'C'
tp1040
a(dp1041
g7
I5
saa(lp1042
(g1003
NS'3'
S'D'
tp1043
a(dp1044
g7
I2
saa(lp1045
(g1003
NS'3'
S'E'
tp1046
a(dp1047
g7
I5
saa(lp1048
(g1003
NS'4'
S'A'
tp1049
a(dp1050
g7
I10
saa(lp1051
(g1003
NS'4'
S'B'
tp1052
a(dp1053
g7
I16
saa(lp1054
(g1003
NS'4'
S'C'
tp1055
a(dp1056
g7
I10
saa(lp1057
(g1003
NS'4'
S'D'
tp1058
a(dp1059
g7
I4
saa(lp1060
(g1003
NS'4'
S'E'
tp1061
a(dp1062
g7
I10
saa(lp1063
(g1003
NS'5'
S'A'
tp1064
a(dp1065
g7
I20
saa(lp1066
(g1003
NS'5'
S'B'
tp1067
a(dp1068
g7
I32
saa(lp1069
(g1003
NS'5'
S'C'
tp1070
a(dp1071
g7
I20
saa(lp1072
(g1003
NS'5'
S'D'
tp1073
a(dp1074
g7
I8
saa(lp1075
(g1003
NS'5'
S'E'
tp1076
a(dp1077
g7
I20
saa(lp1078
(g1003
NS'6'
S'A'
tp1079
a(dp1080
g7
I40
saa(lp1081
(g1003
NS'6'
S'B'
tp1082
a(dp1083
g7
I64
saa(lp1084
(g1003
NS'6'
S'C'
tp1085
a(dp1086
g7
I40
saa(lp1087
(g1003
NS'6'
S'D'
tp1088
a(dp1089
g7
I16
saa(lp1090
(g1003
NS'6'
S'E'
tp1091
a(dp1092
g7
I40
saa(lp1093
(g1003
NS'7'
S'A'
tp1094
a(dp1095
g7
I80
saa(lp1096
(g1003
NS'7'
S'B'
tp1097
a(dp1098
g7
I128
saa(lp1099
(g1003
NS'7'
S'C'
tp1100
a(dp1101
g7
I80
saa(lp1102
(g1003
NS'7'
S'D'
tp1103
a(dp1104
g7
I32
saa(lp1105
(g1003
NS'7'
S'E'
tp1106
a(dp1107
g7
I80
saa(lp1108
(g1003
NS'8'
S'A'
tp1109
a(dp1110
g7
I160
saa(lp1111
(g1003
NS'8'
S'B'
tp1112
a(dp1113
g7
I256
saa(lp1114
(g1003
NS'8'
S'C'
tp1115
a(dp1116
g7
I160
saa(lp1117
(g1003
NS'8'
S'D'
tp1118
a(dp1119
g7
I64
saa(lp1120
(g1003
NS'8'
S'E'
tp1121
a(dp1122
g7
I160
saa(lp1123
(S'Lightweight Alloy'
p1124
S'Adder'
p1125
S'1'
S'I'
tp1126
a(dp1127
g7
I0
saa(lp1128
(g1124
S'Alliance Chieftain'
p1129
S'1'
S'I'
tp1130
a(dp1131
g7
I0
saa(lp1132
(g1124
S'Anaconda'
p1133
S'1'
S'I'
tp1134
a(dp1135
g7
I0
saa(lp1136
(g1124
S'Asp Explorer'
p1137
S'1'
S'I'
tp1138
a(dp1139
g7
I0
saa(lp1140
(g1124
S'Asp Scout'
p1141
S'1'
S'I'
tp1142
a(dp1143
g7
I0
saa(lp1144
(g1124
S'Beluga Liner'
p1145
S'1'
S'I'
tp1146
a(dp1147
g7
I0
saa(lp1148
(g1124
S'Cobra MkIII'
p1149
S'1'
S'I'
tp1150
a(dp1151
g7
I0
saa(lp1152
(g1124
S'Cobra MkIV'
p1153
S'1'
S'I'
tp1154
a(dp1155
g7
I0
saa(lp1156
(g1124
S'Diamondback Explorer'
p1157
S'1'
S'I'
tp1158
a(dp1159
g7
I0
saa(lp1160
(g1124
S'Diamondback Scout'
p1161
S'1'
S'I'
tp1162
a(dp1163
g7
I0
saa(lp1164
(g1124
S'Dolphin'
p1165
S'1'
S'I'
tp1166
a(dp1167
g7
I0
saa(lp1168
(g1124
S'Eagle'
p1169
S'1'
S'I'
tp1170
a(dp1171
g7
I0
saa(lp1172
(g1124
S'Federal Assault Ship'
p1173
S'1'
S'I'
tp1174
a(dp1175
g7
I0
saa(lp1176
(g1124
S'Federal Corvette'
p1177
S'1'
S'I'
tp1178
a(dp1179
g7
I0
saa(lp1180
(g1124
S'Federal Dropship'
p1181
S'1'
S'I'
tp1182
a(dp1183
g7
I0
saa(lp1184
(g1124
S'Federal Gunship'
p1185
S'1'
S'I'
tp1186
a(dp1187
g7
I0
saa(lp1188
(g1124
S'Fer-de-Lance'
p1189
S'1'
S'I'
tp1190
a(dp1191
g7
I0
saa(lp1192
(g1124
S'Hauler'
p1193
S'1'
S'I'
tp1194
a(dp1195
g7
I0
saa(lp1196
(g1124
S'Imperial Clipper'
p1197
S'1'
S'I'
tp1198
a(dp1199
g7
I0
saa(lp1200
(g1124
S'Imperial Courier'
p1201
S'1'
S'I'
tp1202
a(dp1203
g7
I0
saa(lp1204
(g1124
S'Imperial Cutter'
p1205
S'1'
S'I'
tp1206
a(dp1207
g7
I0
saa(lp1208
(g1124
S'Imperial Eagle'
p1209
S'1'
S'I'
tp1210
a(dp1211
g7
I0
saa(lp1212
(g1124
S'Keelback'
p1213
S'1'
S'I'
tp1214
a(dp1215
g7
I0
saa(lp1216
(g1124
S'Orca'
p1217
S'1'
S'I'
tp1218
a(dp1219
g7
I0
saa(lp1220
(g1124
S'Python'
p1221
S'1'
S'I'
tp1222
a(dp1223
g7
I0
saa(lp1224
(g1124
S'Sidewinder'
p1225
S'1'
S'I'
tp1226
a(dp1227
g7
I0
saa(lp1228
(g1124
S'Type-10 Defender'
p1229
S'1'
S'I'
tp1230
a(dp1231
g7
I0
saa(lp1232
(g1124
S'Type-6 Transporter'
p1233
S'1'
S'I'
tp1234
a(dp1235
g7
I0
saa(lp1236
(g1124
S'Type-7 Transporter'
p1237
S'1'
S'I'
tp1238
a(dp1239
g7
I0
saa(lp1240
(g1124
S'Type-9 Heavy'
p1241
S'1'
S'I'
tp1242
a(dp1243
g7
I0
saa(lp1244
(g1124
S'Viper MkIII'
p1245
S'1'
S'I'
tp1246
a(dp1247
g7
I0
saa(lp1248
(g1124
S'Viper MkIV'
p1249
S'1'
S'I'
tp1250
a(dp1251
g7
I0
saa(lp1252
(g1124
S'Vulture'
p1253
S'1'
S'I'
tp1254
a(dp1255
g7
I0
saa(lp1256
(S'Luxury Class Passenger Cabin'
p1257
NS'5'
S'B'
tp1258
a(dp1259
g7
I20
saa(lp1260
(g1257
NS'6'
S'B'
tp1261
a(dp1262
g7
I40
saa(lp1263
(S'Meta Alloy Hull Reinforcement'
p1264
NS'1'
S'D'
tp1265
a(dp1266
g7
I1
saa(lp1267
(g1264
NS'1'
S'E'
tp1268
a(dp1269
g7
I2
saa(lp1270
(g1264
NS'2'
S'D'
tp1271
a(dp1272
g7
I2
saa(lp1273
(g1264
NS'2'
S'E'
tp1274
a(dp1275
g7
I4
saa(lp1276
(g1264
NS'3'
S'D'
tp1277
a(dp1278
g7
I4
saa(lp1279
(g1264
NS'3'
S'E'
tp1280
a(dp1281
g7
I8
saa(lp1282
(g1264
NS'4'
S'D'
tp1283
a(dp1284
g7
I8
saa(lp1285
(g1264
NS'4'
S'E'
tp1286
a(dp1287
g7
I16
saa(lp1288
(g1264
NS'5'
S'D'
tp1289
a(dp1290
g7
I16
saa(lp1291
(g1264
NS'5'
S'E'
tp1292
a(dp1293
g7
I32
saa(lp1294
(S'Military Grade Composite'
p1295
g1125
S'1'
S'I'
tp1296
a(dp1297
g7
I5
saa(lp1298
(g1295
g1129
S'1'
S'I'
tp1299
a(dp1300
g7
I150
saa(lp1301
(g1295
g1133
S'1'
S'I'
tp1302
a(dp1303
g7
I60
saa(lp1304
(g1295
g1137
S'1'
S'I'
tp1305
a(dp1306
g7
I42
saa(lp1307
(g1295
g1141
S'1'
S'I'
tp1308
a(dp1309
g7
I42
saa(lp1310
(g1295
g1145
S'1'
S'I'
tp1311
a(dp1312
g7
I165
saa(lp1313
(g1295
g1149
S'1'
S'I'
tp1314
a(dp1315
g7
I27
saa(lp1316
(g1295
g1153
S'1'
S'I'
tp1317
a(dp1318
g7
I27
saa(lp1319
(g1295
g1157
S'1'
S'I'
tp1320
a(dp1321
g7
I47
saa(lp1322
(g1295
g1161
S'1'
S'I'
tp1323
a(dp1324
g7
I26
saa(lp1325
(g1295
g1165
S'1'
S'I'
tp1326
a(dp1327
g7
I63
saa(lp1328
(g1295
g1169
S'1'
S'I'
tp1329
a(dp1330
g7
I8
saa(lp1331
(g1295
g1173
S'1'
S'I'
tp1332
a(dp1333
g7
I87
saa(lp1334
(g1295
g1177
S'1'
S'I'
tp1335
a(dp1336
g7
I60
saa(lp1337
(g1295
g1181
S'1'
S'I'
tp1338
a(dp1339
g7
I87
saa(lp1340
(g1295
g1185
S'1'
S'I'
tp1341
a(dp1342
g7
I87
saa(lp1343
(g1295
g1189
S'1'
S'I'
tp1344
a(dp1345
g7
I38
saa(lp1346
(g1295
g1193
S'1'
S'I'
tp1347
a(dp1348
g7
I2
saa(lp1349
(g1295
g1197
S'1'
S'I'
tp1350
a(dp1351
g7
I60
saa(lp1352
(g1295
g1201
S'1'
S'I'
tp1353
a(dp1354
g7
I8
saa(lp1355
(g1295
g1205
S'1'
S'I'
tp1356
a(dp1357
g7
I60
saa(lp1358
(g1295
g1209
S'1'
S'I'
tp1359
a(dp1360
g7
I8
saa(lp1361
(g1295
g1213
S'1'
S'I'
tp1362
a(dp1363
g7
I23
saa(lp1364
(g1295
g1217
S'1'
S'I'
tp1365
a(dp1366
g7
I87
saa(lp1367
(g1295
g1221
S'1'
S'I'
tp1368
a(dp1369
g7
I53
saa(lp1370
(g1295
g1225
S'1'
S'I'
tp1371
a(dp1372
g7
I4
saa(lp1373
(g1295
g1229
S'1'
S'I'
tp1374
a(dp1375
g7
I150
saa(lp1376
(g1295
g1233
S'1'
S'I'
tp1377
a(dp1378
g7
I23
saa(lp1379
(g1295
g1237
S'1'
S'I'
tp1380
a(dp1381
g7
I63
saa(lp1382
(g1295
g1241
S'1'
S'I'
tp1383
a(dp1384
g7
I150
saa(lp1385
(g1295
g1245
S'1'
S'I'
tp1386
a(dp1387
g7
I9
saa(lp1388
(g1295
g1249
S'1'
S'I'
tp1389
a(dp1390
g7
I9
saa(lp1391
(g1295
g1253
S'1'
S'I'
tp1392
a(dp1393
g7
I35
saa(lp1394
(S'Mine Launcher'
p1395
NS'1'
S'I'
tp1396
a(dp1397
g7
I2
saa(lp1398
(g1395
NS'2'
S'I'
tp1399
a(dp1400
g7
I4
saa(lp1401
(S'Mining Lance Beam Laser'
p1402
NS'1'
S'D'
tp1403
a(dp1404
g7
I2
saa(lp1405
(S'Mining Laser'
p1406
NS'1'
S'D'
tp1407
a(dp1408
g7
I2
saa(lp1409
(g1406
NS'2'
S'D'
tp1410
a(dp1411
g7
I2
saa(lp1412
(S'Mirrored Surface Composite'
p1413
g1125
S'1'
S'I'
tp1414
a(dp1415
g7
I5
saa(lp1416
(g1413
g1129
S'1'
S'I'
tp1417
a(dp1418
g7
I150
saa(lp1419
(g1413
g1133
S'1'
S'I'
tp1420
a(dp1421
g7
I60
saa(lp1422
(g1413
g1137
S'1'
S'I'
tp1423
a(dp1424
g7
I42
saa(lp1425
(g1413
g1141
S'1'
S'I'
tp1426
a(dp1427
g7
I42
saa(lp1428
(g1413
g1145
S'1'
S'I'
tp1429
a(dp1430
g7
I165
saa(lp1431
(g1413
g1149
S'1'
S'I'
tp1432
a(dp1433
g7
I27
saa(lp1434
(g1413
g1153
S'1'
S'I'
tp1435
a(dp1436
g7
I27
saa(lp1437
(g1413
g1157
S'1'
S'I'
tp1438
a(dp1439
g7
I26
saa(lp1440
(g1413
g1161
S'1'
S'I'
tp1441
a(dp1442
g7
I26
saa(lp1443
(g1413
g1165
S'1'
S'I'
tp1444
a(dp1445
g7
I63
saa(lp1446
(g1413
g1169
S'1'
S'I'
tp1447
a(dp1448
g7
I8
saa(lp1449
(g1413
g1173
S'1'
S'I'
tp1450
a(dp1451
g7
I87
saa(lp1452
(g1413
g1177
S'1'
S'I'
tp1453
a(dp1454
g7
I60
saa(lp1455
(g1413
g1181
S'1'
S'I'
tp1456
a(dp1457
g7
I87
saa(lp1458
(g1413
g1185
S'1'
S'I'
tp1459
a(dp1460
g7
I87
saa(lp1461
(g1413
g1189
S'1'
S'I'
tp1462
a(dp1463
g7
I38
saa(lp1464
(g1413
g1193
S'1'
S'I'
tp1465
a(dp1466
g7
I2
saa(lp1467
(g1413
g1197
S'1'
S'I'
tp1468
a(dp1469
g7
I60
saa(lp1470
(g1413
g1201
S'1'
S'I'
tp1471
a(dp1472
g7
I8
saa(lp1473
(g1413
g1205
S'1'
S'I'
tp1474
a(dp1475
g7
I60
saa(lp1476
(g1413
g1209
S'1'
S'I'
tp1477
a(dp1478
g7
I8
saa(lp1479
(g1413
g1213
S'1'
S'I'
tp1480
a(dp1481
g7
I23
saa(lp1482
(g1413
g1217
S'1'
S'I'
tp1483
a(dp1484
g7
I87
saa(lp1485
(g1413
g1221
S'1'
S'I'
tp1486
a(dp1487
g7
I53
saa(lp1488
(g1413
g1225
S'1'
S'I'
tp1489
a(dp1490
g7
I4
saa(lp1491
(g1413
g1229
S'1'
S'I'
tp1492
a(dp1493
g7
I150
saa(lp1494
(g1413
g1233
S'1'
S'I'
tp1495
a(dp1496
g7
I23
saa(lp1497
(g1413
g1237
S'1'
S'I'
tp1498
a(dp1499
g7
I63
saa(lp1500
(g1413
g1241
S'1'
S'I'
tp1501
a(dp1502
g7
I150
saa(lp1503
(g1413
g1245
S'1'
S'I'
tp1504
a(dp1505
g7
I9
saa(lp1506
(g1413
g1249
S'1'
S'I'
tp1507
a(dp1508
g7
I9
saa(lp1509
(g1413
g1253
S'1'
S'I'
tp1510
a(dp1511
g7
I35
saa(lp1512
(S'Missile Rack'
p1513
NS'1'
S'B'
tp1514
a(dp1515
g7
I2
saa(lp1516
(g1513
NS'2'
S'B'
tp1517
a(dp1518
g7
I4
saa(lp1519
(S'Module Reinforcement Package'
p1520
NS'1'
S'D'
tp1521
ag1266
aa(lp1522
(g1520
NS'1'
S'E'
tp1523
ag1269
aa(lp1524
(g1520
NS'2'
S'D'
tp1525
ag1272
aa(lp1526
(g1520
NS'2'
S'E'
tp1527
ag1275
aa(lp1528
(g1520
NS'3'
S'D'
tp1529
ag1278
aa(lp1530
(g1520
NS'3'
S'E'
tp1531
ag1281
aa(lp1532
(g1520
NS'4'
S'D'
tp1533
ag1284
aa(lp1534
(g1520
NS'4'
S'E'
tp1535
ag1287
aa(lp1536
(g1520
NS'5'
S'D'
tp1537
ag1290
aa(lp1538
(g1520
NS'5'
S'E'
tp1539
ag1293
aa(lp1540
(S'Multi-Cannon'
p1541
NS'1'
S'F'
tp1542
a(dp1543
g7
I2
saa(lp1544
(g1541
NS'1'
S'G'
tp1545
a(dp1546
g7
I2
saa(lp1547
(g1541
NS'2'
S'E'
tp1548
a(dp1549
g7
I4
saa(lp1550
(g1541
NS'2'
S'F'
tp1551
a(dp1552
g7
I4
saa(lp1553
(g1541
NS'3'
S'C'
tp1554
a(dp1555
g7
I8
saa(lp1556
(g1541
NS'4'
S'A'
tp1557
a(dp1558
g7
I16
saa(lp1559
(S'Pacifier Frag-Cannon'
p1560
NS'3'
S'C'
tp1561
a(dp1562
g7
I8
saa(lp1563
(S'Pack-Hound Missile Rack'
p1564
NS'2'
S'B'
tp1565
a(dp1566
g7
I4
saa(lp1567
(S'Planetary Approach Suite'
p1568
NS'1'
S'I'
tp1569
a(dp1570
g7
I0
saa(lp1571
(S'Planetary Vehicle Hangar'
p1572
NS'2'
S'G'
tp1573
a(dp1574
g7
I6
saa(lp1575
(g1572
NS'2'
S'H'
tp1576
a(dp1577
g7
I12
saa(lp1578
(g1572
NS'4'
S'G'
tp1579
a(dp1580
g7
I10
saa(lp1581
(g1572
NS'4'
S'H'
tp1582
a(dp1583
g7
I20
saa(lp1584
(g1572
NS'6'
S'G'
tp1585
a(dp1586
g7
I17
saa(lp1587
(g1572
NS'6'
S'H'
tp1588
a(dp1589
g7
I34
saa(lp1590
(S'Plasma Accelerator'
p1591
NS'2'
S'C'
tp1592
a(dp1593
g7
I4
saa(lp1594
(g1591
NS'3'
S'B'
tp1595
a(dp1596
g7
I8
saa(lp1597
(g1591
NS'4'
S'A'
tp1598
a(dp1599
g7
I16
saa(lp1600
(S'Point Defence'
p1601
NS'0'
S'I'
tp1602
a(dp1603
g7
F0.5
saa(lp1604
(S'Power Distributor'
p1605
NS'1'
S'A'
tp1606
a(dp1607
g7
F1.3
saa(lp1608
(g1605
NS'1'
S'B'
tp1609
a(dp1610
g7
I2
saa(lp1611
(g1605
NS'1'
S'C'
tp1612
a(dp1613
g7
F1.3
saa(lp1614
(g1605
NS'1'
S'D'
tp1615
a(dp1616
g7
F0.5
saa(lp1617
(g1605
NS'1'
S'E'
tp1618
a(dp1619
g7
F1.3
saa(lp1620
(g1605
NS'2'
S'A'
tp1621
a(dp1622
g7
F2.5
saa(lp1623
(g1605
NS'2'
S'B'
tp1624
a(dp1625
g7
I4
saa(lp1626
(g1605
NS'2'
S'C'
tp1627
a(dp1628
g7
F2.5
saa(lp1629
(g1605
NS'2'
S'D'
tp1630
a(dp1631
g7
I1
saa(lp1632
(g1605
NS'2'
S'E'
tp1633
a(dp1634
g7
F2.5
saa(lp1635
(g1605
NS'3'
S'A'
tp1636
a(dp1637
g7
I5
saa(lp1638
(g1605
NS'3'
S'B'
tp1639
a(dp1640
g7
I8
saa(lp1641
(g1605
NS'3'
S'C'
tp1642
a(dp1643
g7
I5
saa(lp1644
(g1605
NS'3'
S'D'
tp1645
a(dp1646
g7
I2
saa(lp1647
(g1605
NS'3'
S'E'
tp1648
a(dp1649
g7
I5
saa(lp1650
(g1605
NS'4'
S'A'
tp1651
a(dp1652
g7
I10
saa(lp1653
(g1605
NS'4'
S'B'
tp1654
a(dp1655
g7
I16
saa(lp1656
(g1605
NS'4'
S'C'
tp1657
a(dp1658
g7
I10
saa(lp1659
(g1605
NS'4'
S'D'
tp1660
a(dp1661
g7
I4
saa(lp1662
(g1605
NS'4'
S'E'
tp1663
a(dp1664
g7
I10
saa(lp1665
(g1605
NS'5'
S'A'
tp1666
a(dp1667
g7
I20
saa(lp1668
(g1605
NS'5'
S'B'
tp1669
a(dp1670
g7
I32
saa(lp1671
(g1605
NS'5'
S'C'
tp1672
a(dp1673
g7
I20
saa(lp1674
(g1605
NS'5'
S'D'
tp1675
a(dp1676
g7
I8
saa(lp1677
(g1605
NS'5'
S'E'
tp1678
a(dp1679
g7
I20
saa(lp1680
(g1605
NS'6'
S'A'
tp1681
a(dp1682
g7
I40
saa(lp1683
(g1605
NS'6'
S'B'
tp1684
a(dp1685
g7
I64
saa(lp1686
(g1605
NS'6'
S'C'
tp1687
a(dp1688
g7
I40
saa(lp1689
(g1605
NS'6'
S'D'
tp1690
a(dp1691
g7
I16
saa(lp1692
(g1605
NS'6'
S'E'
tp1693
a(dp1694
g7
I40
saa(lp1695
(g1605
NS'7'
S'A'
tp1696
a(dp1697
g7
I80
saa(lp1698
(g1605
NS'7'
S'B'
tp1699
a(dp1700
g7
I128
saa(lp1701
(g1605
NS'7'
S'C'
tp1702
a(dp1703
g7
I80
saa(lp1704
(g1605
NS'7'
S'D'
tp1705
a(dp1706
g7
I32
saa(lp1707
(g1605
NS'7'
S'E'
tp1708
a(dp1709
g7
I80
saa(lp1710
(g1605
NS'8'
S'A'
tp1711
a(dp1712
g7
I160
saa(lp1713
(g1605
NS'8'
S'B'
tp1714
a(dp1715
g7
I256
saa(lp1716
(g1605
NS'8'
S'C'
tp1717
a(dp1718
g7
I160
saa(lp1719
(g1605
NS'8'
S'D'
tp1720
a(dp1721
g7
I64
saa(lp1722
(g1605
NS'8'
S'E'
tp1723
a(dp1724
g7
I160
saa(lp1725
(S'Power Plant'
p1726
NS'2'
S'A'
tp1727
a(dp1728
g7
F1.3
saa(lp1729
(g1726
NS'2'
S'B'
tp1730
a(dp1731
g7
I2
saa(lp1732
(g1726
NS'2'
S'C'
tp1733
a(dp1734
g7
F1.3
saa(lp1735
(g1726
NS'2'
S'D'
tp1736
a(dp1737
g7
I1
saa(lp1738
(g1726
NS'2'
S'E'
tp1739
a(dp1740
g7
F2.5
saa(lp1741
(g1726
NS'3'
S'A'
tp1742
a(dp1743
g7
F2.5
saa(lp1744
(g1726
NS'3'
S'B'
tp1745
a(dp1746
g7
I4
saa(lp1747
(g1726
NS'3'
S'C'
tp1748
a(dp1749
g7
F2.5
saa(lp1750
(g1726
NS'3'
S'D'
tp1751
a(dp1752
g7
I2
saa(lp1753
(g1726
NS'3'
S'E'
tp1754
a(dp1755
g7
I5
saa(lp1756
(g1726
NS'4'
S'A'
tp1757
a(dp1758
g7
I5
saa(lp1759
(g1726
NS'4'
S'B'
tp1760
a(dp1761
g7
I8
saa(lp1762
(g1726
NS'4'
S'C'
tp1763
a(dp1764
g7
I5
saa(lp1765
(g1726
NS'4'
S'D'
tp1766
a(dp1767
g7
I4
saa(lp1768
(g1726
NS'4'
S'E'
tp1769
a(dp1770
g7
I10
saa(lp1771
(g1726
NS'5'
S'A'
tp1772
a(dp1773
g7
I10
saa(lp1774
(g1726
NS'5'
S'B'
tp1775
a(dp1776
g7
I16
saa(lp1777
(g1726
NS'5'
S'C'
tp1778
a(dp1779
g7
I10
saa(lp1780
(g1726
NS'5'
S'D'
tp1781
a(dp1782
g7
I8
saa(lp1783
(g1726
NS'5'
S'E'
tp1784
a(dp1785
g7
I20
saa(lp1786
(g1726
NS'6'
S'A'
tp1787
a(dp1788
g7
I20
saa(lp1789
(g1726
NS'6'
S'B'
tp1790
a(dp1791
g7
I32
saa(lp1792
(g1726
NS'6'
S'C'
tp1793
a(dp1794
g7
I20
saa(lp1795
(g1726
NS'6'
S'D'
tp1796
a(dp1797
g7
I16
saa(lp1798
(g1726
NS'6'
S'E'
tp1799
a(dp1800
g7
I40
saa(lp1801
(g1726
NS'7'
S'A'
tp1802
a(dp1803
g7
I40
saa(lp1804
(g1726
NS'7'
S'B'
tp1805
a(dp1806
g7
I64
saa(lp1807
(g1726
NS'7'
S'C'
tp1808
a(dp1809
g7
I40
saa(lp1810
(g1726
NS'7'
S'D'
tp1811
a(dp1812
g7
I32
saa(lp1813
(g1726
NS'7'
S'E'
tp1814
a(dp1815
g7
I80
saa(lp1816
(g1726
NS'8'
S'A'
tp1817
a(dp1818
g7
I80
saa(lp1819
(g1726
NS'8'
S'B'
tp1820
a(dp1821
g7
I128
saa(lp1822
(g1726
NS'8'
S'C'
tp1823
a(dp1824
g7
I80
saa(lp1825
(g1726
NS'8'
S'D'
tp1826
a(dp1827
g7
I64
saa(lp1828
(g1726
NS'8'
S'E'
tp1829
a(dp1830
g7
I160
saa(lp1831
(S'Prismatic Shield Generator'
p1832
NS'1'
S'A'
tp1833
a(dp1834
g7
F2.5
saa(lp1835
(g1832
NS'2'
S'A'
tp1836
a(dp1837
g7
I5
saa(lp1838
(g1832
NS'3'
S'A'
tp1839
a(dp1840
g7
I10
saa(lp1841
(g1832
NS'4'
S'A'
tp1842
a(dp1843
g7
I20
saa(lp1844
(g1832
NS'5'
S'A'
tp1845
a(dp1846
g7
I40
saa(lp1847
(g1832
NS'6'
S'A'
tp1848
a(dp1849
g7
I80
saa(lp1850
(g1832
NS'7'
S'A'
tp1851
a(dp1852
g7
I160
saa(lp1853
(g1832
NS'8'
S'A'
tp1854
a(dp1855
g7
I320
saa(lp1856
(S'Prospector Limpet Controller'
p1857
NS'1'
S'A'
tp1858
a(dp1859
g7
F1.3
saa(lp1860
(g1857
NS'1'
S'B'
tp1861
a(dp1862
g7
I2
saa(lp1863
(g1857
NS'1'
S'C'
tp1864
a(dp1865
g7
F1.3
saa(lp1866
(g1857
NS'1'
S'D'
tp1867
a(dp1868
g7
F0.5
saa(lp1869
(g1857
NS'1'
S'E'
tp1870
a(dp1871
g7
F1.3
saa(lp1872
(g1857
NS'3'
S'A'
tp1873
a(dp1874
g7
I5
saa(lp1875
(g1857
NS'3'
S'B'
tp1876
a(dp1877
g7
I8
saa(lp1878
(g1857
NS'3'
S'C'
tp1879
a(dp1880
g7
I5
saa(lp1881
(g1857
NS'3'
S'D'
tp1882
a(dp1883
g7
I2
saa(lp1884
(g1857
NS'3'
S'E'
tp1885
a(dp1886
g7
I5
saa(lp1887
(g1857
NS'5'
S'A'
tp1888
a(dp1889
g7
I20
saa(lp1890
(g1857
NS'5'
S'B'
tp1891
a(dp1892
g7
I32
saa(lp1893
(g1857
NS'5'
S'C'
tp1894
a(dp1895
g7
I20
saa(lp1896
(g1857
NS'5'
S'D'
tp1897
a(dp1898
g7
I8
saa(lp1899
(g1857
NS'5'
S'E'
tp1900
a(dp1901
g7
I20
saa(lp1902
(g1857
NS'7'
S'A'
tp1903
a(dp1904
g7
I80
saa(lp1905
(g1857
NS'7'
S'B'
tp1906
a(dp1907
g7
I128
saa(lp1908
(g1857
NS'7'
S'C'
tp1909
a(dp1910
g7
I80
saa(lp1911
(g1857
NS'7'
S'D'
tp1912
a(dp1913
g7
I32
saa(lp1914
(g1857
NS'7'
S'E'
tp1915
a(dp1916
g7
I80
saa(lp1917
(S'Pulse Disruptor Laser'
p1918
NS'2'
S'E'
tp1919
a(dp1920
g7
I4
saa(lp1921
(S'Pulse Laser'
p1922
NS'1'
S'F'
tp1923
a(dp1924
g7
I2
saa(lp1925
(g1922
NS'1'
S'G'
tp1926
a(dp1927
g7
I2
saa(lp1928
(g1922
NS'2'
S'E'
tp1929
a(dp1930
g7
I4
saa(lp1931
(g1922
NS'2'
S'F'
tp1932
a(dp1933
g7
I4
saa(lp1934
(g1922
NS'3'
S'D'
tp1935
a(dp1936
g7
I8
saa(lp1937
(g1922
NS'3'
S'E'
tp1938
a(dp1939
g7
I8
saa(lp1940
(g1922
NS'3'
S'F'
tp1941
a(dp1942
g7
I8
saa(lp1943
(g1922
NS'4'
S'A'
tp1944
a(dp1945
g7
I16
saa(lp1946
(S'Rail Gun'
p1947
NS'1'
S'D'
tp1948
a(dp1949
g7
I2
saa(lp1950
(g1947
NS'2'
S'B'
tp1951
a(dp1952
g7
I4
saa(lp1953
(S'Reactive Surface Composite'
p1954
g1125
S'1'
S'I'
tp1955
a(dp1956
g7
I5
saa(lp1957
(g1954
g1129
S'1'
S'I'
tp1958
a(dp1959
g7
I150
saa(lp1960
(g1954
g1133
S'1'
S'I'
tp1961
a(dp1962
g7
I60
saa(lp1963
(g1954
g1137
S'1'
S'I'
tp1964
a(dp1965
g7
I42
saa(lp1966
(g1954
g1141
S'1'
S'I'
tp1967
a(dp1968
g7
I42
saa(lp1969
(g1954
g1145
S'1'
S'I'
tp1970
a(dp1971
g7
I165
saa(lp1972
(g1954
g1149
S'1'
S'I'
tp1973
a(dp1974
g7
I27
saa(lp1975
(g1954
g1153
S'1'
S'I'
tp1976
a(dp1977
g7
I27
saa(lp1978
(g1954
g1157
S'1'
S'I'
tp1979
a(dp1980
g7
I47
saa(lp1981
(g1954
g1161
S'1'
S'I'
tp1982
a(dp1983
g7
I26
saa(lp1984
(g1954
g1165
S'1'
S'I'
tp1985
a(dp1986
g7
I63
saa(lp1987
(g1954
g1169
S'1'
S'I'
tp1988
a(dp1989
g7
I8
saa(lp1990
(g1954
g1173
S'1'
S'I'
tp1991
a(dp1992
g7
I87
saa(lp1993
(g1954
g1177
S'1'
S'I'
tp1994
a(dp1995
g7
I60
saa(lp1996
(g1954
g1181
S'1'
S'I'
tp1997
a(dp1998
g7
I87
saa(lp1999
(g1954
g1185
S'1'
S'I'
tp2000
a(dp2001
g7
I87
saa(lp2002
(g1954
g1189
S'1'
S'I'
tp2003
a(dp2004
g7
I38
saa(lp2005
(g1954
g1193
S'1'
S'I'
tp2006
a(dp2007
g7
I2
saa(lp2008
(g1954
g1197
S'1'
S'I'
tp2009
a(dp2010
g7
I60
saa(lp2011
(g1954
g1201
S'1'
S'I'
tp2012
a(dp2013
g7
I8
saa(lp2014
(g1954
g1205
S'1'
S'I'
tp2015
a(dp2016
g7
I60
saa(lp2017
(g1954
g1209
S'1'
S'I'
tp2018
a(dp2019
g7
I8
saa(lp2020
(g1954
g1213
S'1'
S'I'
tp2021
a(dp2022
g7
I23
saa(lp2023
(g1954
g1217
S'1'
S'I'
tp2024
a(dp2025
g7
I87
saa(lp2026
(g1954
g1221
S'1'
S'I'
tp2027
a(dp2028
g7
I53
saa(lp2029
(g1954
g1225
S'1'
S'I'
tp2030
a(dp2031
g7
I4
saa(lp2032
(g1954
g1229
S'1'
S'I'
tp2033
a(dp2034
g7
I150
saa(lp2035
(g1954
g1233
S'1'
S'I'
tp2036
a(dp2037
g7
I23
saa(lp2038
(g1954
g1237
S'1'
S'I'
tp2039
a(dp2040
g7
I63
saa(lp2041
(g1954
g1241
S'1'
S'I'
tp2042
a(dp2043
g7
I150
saa(lp2044
(g1954
g1245
S'1'
S'I'
tp2045
a(dp2046
g7
I9
saa(lp2047
(g1954
g1249
S'1'
S'I'
tp2048
a(dp2049
g7
I9
saa(lp2050
(g1954
g1253
S'1'
S'I'
tp2051
a(dp2052
g7
I35
saa(lp2053
(S'Recon Limpet Controller'
p2054
NS'1'
S'E'
tp2055
a(dp2056
g7
F1.3
saa(lp2057
(g2054
NS'3'
S'E'
tp2058
a(dp2059
g7
I2
saa(lp2060
(g2054
NS'5'
S'E'
tp2061
a(dp2062
g7
I20
saa(lp2063
(g2054
NS'7'
S'E'
tp2064
a(dp2065
g7
I128
saa(lp2066
(S'Refinery'
p2067
NS'1'
S'A'
tp2068
a(dp2069
g7
I0
saa(lp2070
(g2067
NS'1'
S'B'
tp2071
a(dp2072
g7
I0
saa(lp2073
(g2067
NS'1'
S'C'
tp2074
a(dp2075
g7
I0
saa(lp2076
(g2067
NS'1'
S'D'
tp2077
a(dp2078
g7
I0
saa(lp2079
(g2067
NS'1'
S'E'
tp2080
a(dp2081
g7
I0
saa(lp2082
(g2067
NS'2'
S'A'
tp2083
a(dp2084
g7
I0
saa(lp2085
(g2067
NS'2'
S'B'
tp2086
a(dp2087
g7
I0
saa(lp2088
(g2067
NS'2'
S'C'
tp2089
a(dp2090
g7
I0
saa(lp2091
(g2067
NS'2'
S'D'
tp2092
a(dp2093
g7
I0
saa(lp2094
(g2067
NS'2'
S'E'
tp2095
a(dp2096
g7
I0
saa(lp2097
(g2067
NS'3'
S'A'
tp2098
a(dp2099
g7
I0
saa(lp2100
(g2067
NS'3'
S'B'
tp2101
a(dp2102
g7
I0
saa(lp2103
(g2067
NS'3'
S'C'
tp2104
a(dp2105
g7
I0
saa(lp2106
(g2067
NS'3'
S'D'
tp2107
a(dp2108
g7
I0
saa(lp2109
(g2067
NS'3'
S'E'
tp2110
a(dp2111
g7
I0
saa(lp2112
(g2067
NS'4'
S'A'
tp2113
a(dp2114
g7
I0
saa(lp2115
(g2067
NS'4'
S'B'
tp2116
a(dp2117
g7
I0
saa(lp2118
(g2067
NS'4'
S'C'
tp2119
a(dp2120
g7
I0
saa(lp2121
(g2067
NS'4'
S'D'
tp2122
a(dp2123
g7
I0
saa(lp2124
(g2067
NS'4'
S'E'
tp2125
a(dp2126
g7
I0
saa(lp2127
(S'Reinforced Alloy'
p2128
g1125
S'1'
S'I'
tp2129
a(dp2130
g7
I3
saa(lp2131
(g2128
g1129
S'1'
S'I'
tp2132
a(dp2133
g7
I75
saa(lp2134
(g2128
g1133
S'1'
S'I'
tp2135
a(dp2136
g7
I30
saa(lp2137
(g2128
g1137
S'1'
S'I'
tp2138
a(dp2139
g7
I21
saa(lp2140
(g2128
g1141
S'1'
S'I'
tp2141
a(dp2142
g7
I21
saa(lp2143
(g2128
g1145
S'1'
S'I'
tp2144
a(dp2145
g7
I83
saa(lp2146
(g2128
g1149
S'1'
S'I'
tp2147
a(dp2148
g7
I14
saa(lp2149
(g2128
g1153
S'1'
S'I'
tp2150
a(dp2151
g7
I14
saa(lp2152
(g2128
g1157
S'1'
S'I'
tp2153
a(dp2154
g7
I23
saa(lp2155
(g2128
g1161
S'1'
S'I'
tp2156
a(dp2157
g7
I13
saa(lp2158
(g2128
g1165
S'1'
S'I'
tp2159
a(dp2160
g7
I32
saa(lp2161
(g2128
g1169
S'1'
S'I'
tp2162
a(dp2163
g7
I4
saa(lp2164
(g2128
g1173
S'1'
S'I'
tp2165
a(dp2166
g7
I44
saa(lp2167
(g2128
g1177
S'1'
S'I'
tp2168
a(dp2169
g7
I30
saa(lp2170
(g2128
g1181
S'1'
S'I'
tp2171
a(dp2172
g7
I44
saa(lp2173
(g2128
g1185
S'1'
S'I'
tp2174
a(dp2175
g7
I44
saa(lp2176
(g2128
g1189
S'1'
S'I'
tp2177
a(dp2178
g7
I19
saa(lp2179
(g2128
g1193
S'1'
S'I'
tp2180
a(dp2181
g7
I1
saa(lp2182
(g2128
g1197
S'1'
S'I'
tp2183
a(dp2184
g7
I30
saa(lp2185
(g2128
g1201
S'1'
S'I'
tp2186
a(dp2187
g7
I4
saa(lp2188
(g2128
g1205
S'1'
S'I'
tp2189
a(dp2190
g7
I30
saa(lp2191
(g2128
g1209
S'1'
S'I'
tp2192
a(dp2193
g7
I4
saa(lp2194
(g2128
g1213
S'1'
S'I'
tp2195
a(dp2196
g7
I12
saa(lp2197
(g2128
g1217
S'1'
S'I'
tp2198
a(dp2199
g7
I21
saa(lp2200
(g2128
g1221
S'1'
S'I'
tp2201
a(dp2202
g7
I26
saa(lp2203
(g2128
g1225
S'1'
S'I'
tp2204
a(dp2205
g7
I2
saa(lp2206
(g2128
g1229
S'1'
S'I'
tp2207
a(dp2208
g7
I75
saa(lp2209
(g2128
g1233
S'1'
S'I'
tp2210
a(dp2211
g7
I12
saa(lp2212
(g2128
g1237
S'1'
S'I'
tp2213
a(dp2214
g7
I32
saa(lp2215
(g2128
g1241
S'1'
S'I'
tp2216
a(dp2217
g7
I75
saa(lp2218
(g2128
g1245
S'1'
S'I'
tp2219
a(dp2220
g7
I5
saa(lp2221
(g2128
g1249
S'1'
S'I'
tp2222
a(dp2223
g7
I5
saa(lp2224
(g2128
g1253
S'1'
S'I'
tp2225
a(dp2226
g7
I17
saa(lp2227
(S'Remote Release Flak Launcher'
p2228
NS'2'
S'B'
tp2229
a(dp2230
g7
I4
saa(lp2231
(S'Remote Release Flechette Launcher'
p2232
NS'2'
S'B'
tp2233
a(dp2234
g7
I4
saa(lp2235
(S'Repair Limpet Controller'
p2236
NS'1'
S'A'
tp2237
a(dp2238
g7
F1.3
saa(lp2239
(g2236
NS'1'
S'B'
tp2240
a(dp2241
g7
I2
saa(lp2242
(g2236
NS'1'
S'C'
tp2243
a(dp2244
g7
F1.3
saa(lp2245
(g2236
NS'1'
S'D'
tp2246
a(dp2247
g7
F0.5
saa(lp2248
(g2236
NS'1'
S'E'
tp2249
a(dp2250
g7
F1.3
saa(lp2251
(g2236
NS'3'
S'A'
tp2252
a(dp2253
g7
I5
saa(lp2254
(g2236
NS'3'
S'B'
tp2255
a(dp2256
g7
I8
saa(lp2257
(g2236
NS'3'
S'C'
tp2258
a(dp2259
g7
I5
saa(lp2260
(g2236
NS'3'
S'D'
tp2261
a(dp2262
g7
I2
saa(lp2263
(g2236
NS'3'
S'E'
tp2264
a(dp2265
g7
I5
saa(lp2266
(g2236
NS'5'
S'A'
tp2267
a(dp2268
g7
I20
saa(lp2269
(g2236
NS'5'
S'B'
tp2270
a(dp2271
g7
I32
saa(lp2272
(g2236
NS'5'
S'C'
tp2273
a(dp2274
g7
I20
saa(lp2275
(g2236
NS'5'
S'D'
tp2276
a(dp2277
g7
I8
saa(lp2278
(g2236
NS'5'
S'E'
tp2279
a(dp2280
g7
I20
saa(lp2281
(g2236
NS'7'
S'A'
tp2282
a(dp2283
g7
I80
saa(lp2284
(g2236
NS'7'
S'B'
tp2285
a(dp2286
g7
I128
saa(lp2287
(g2236
NS'7'
S'C'
tp2288
a(dp2289
g7
I80
saa(lp2290
(g2236
NS'7'
S'D'
tp2291
a(dp2292
g7
I32
saa(lp2293
(g2236
NS'7'
S'E'
tp2294
a(dp2295
g7
I80
saa(lp2296
(S'Research Limpet Controller'
p2297
NS'1'
S'E'
tp2298
a(dp2299
g7
F1.3
saa(lp2300
(S'Retributor Beam Laser'
p2301
NS'1'
S'E'
tp2302
a(dp2303
g7
I2
saa(lp2304
(S'Rocket Propelled FSD Disruptor'
p2305
NS'2'
S'B'
tp2306
a(dp2307
g7
I4
saa(lp2308
(S'Sensors'
p2309
NS'1'
S'A'
tp2310
a(dp2311
g7
F1.3
saa(lp2312
(g2309
NS'1'
S'B'
tp2313
a(dp2314
g7
I2
saa(lp2315
(g2309
NS'1'
S'C'
tp2316
a(dp2317
g7
F1.3
saa(lp2318
(g2309
NS'1'
S'D'
tp2319
a(dp2320
g7
F0.5
saa(lp2321
(g2309
NS'1'
S'E'
tp2322
a(dp2323
g7
F1.3
saa(lp2324
(g2309
NS'2'
S'A'
tp2325
a(dp2326
g7
F2.5
saa(lp2327
(g2309
NS'2'
S'B'
tp2328
a(dp2329
g7
I4
saa(lp2330
(g2309
NS'2'
S'C'
tp2331
a(dp2332
g7
F2.5
saa(lp2333
(g2309
NS'2'
S'D'
tp2334
a(dp2335
g7
I1
saa(lp2336
(g2309
NS'2'
S'E'
tp2337
a(dp2338
g7
F2.5
saa(lp2339
(g2309
NS'3'
S'A'
tp2340
a(dp2341
g7
I5
saa(lp2342
(g2309
NS'3'
S'B'
tp2343
a(dp2344
g7
I8
saa(lp2345
(g2309
NS'3'
S'C'
tp2346
a(dp2347
g7
I5
saa(lp2348
(g2309
NS'3'
S'D'
tp2349
a(dp2350
g7
I2
saa(lp2351
(g2309
NS'3'
S'E'
tp2352
a(dp2353
g7
I5
saa(lp2354
(g2309
NS'4'
S'A'
tp2355
a(dp2356
g7
I10
saa(lp2357
(g2309
NS'4'
S'B'
tp2358
a(dp2359
g7
I16
saa(lp2360
(g2309
NS'4'
S'C'
tp2361
a(dp2362
g7
I10
saa(lp2363
(g2309
NS'4'
S'D'
tp2364
a(dp2365
g7
I4
saa(lp2366
(g2309
NS'4'
S'E'
tp2367
a(dp2368
g7
I10
saa(lp2369
(g2309
NS'5'
S'A'
tp2370
a(dp2371
g7
I20
saa(lp2372
(g2309
NS'5'
S'B'
tp2373
a(dp2374
g7
I32
saa(lp2375
(g2309
NS'5'
S'C'
tp2376
a(dp2377
g7
I20
saa(lp2378
(g2309
NS'5'
S'D'
tp2379
a(dp2380
g7
I8
saa(lp2381
(g2309
NS'5'
S'E'
tp2382
a(dp2383
g7
I20
saa(lp2384
(g2309
NS'6'
S'A'
tp2385
a(dp2386
g7
I40
saa(lp2387
(g2309
NS'6'
S'B'
tp2388
a(dp2389
g7
I64
saa(lp2390
(g2309
NS'6'
S'C'
tp2391
a(dp2392
g7
I40
saa(lp2393
(g2309
NS'6'
S'D'
tp2394
a(dp2395
g7
I16
saa(lp2396
(g2309
NS'6'
S'E'
tp2397
a(dp2398
g7
I40
saa(lp2399
(g2309
NS'7'
S'A'
tp2400
a(dp2401
g7
I80
saa(lp2402
(g2309
NS'7'
S'B'
tp2403
a(dp2404
g7
I128
saa(lp2405
(g2309
NS'7'
S'C'
tp2406
a(dp2407
g7
I80
saa(lp2408
(g2309
NS'7'
S'D'
tp2409
a(dp2410
g7
I32
saa(lp2411
(g2309
NS'7'
S'E'
tp2412
a(dp2413
g7
I80
saa(lp2414
(g2309
NS'8'
S'A'
tp2415
a(dp2416
g7
I160
saa(lp2417
(g2309
NS'8'
S'B'
tp2418
a(dp2419
g7
I256
saa(lp2420
(g2309
NS'8'
S'C'
tp2421
a(dp2422
g7
I160
saa(lp2423
(g2309
NS'8'
S'D'
tp2424
a(dp2425
g7
I64
saa(lp2426
(g2309
NS'8'
S'E'
tp2427
a(dp2428
g7
I160
saa(lp2429
(S'Shield Booster'
p2430
NS'0'
S'A'
tp2431
a(dp2432
g7
F3.5
saa(lp2433
(g2430
NS'0'
S'B'
tp2434
a(dp2435
g7
I3
saa(lp2436
(g2430
NS'0'
S'C'
tp2437
a(dp2438
g7
I2
saa(lp2439
(g2430
NS'0'
S'D'
tp2440
a(dp2441
g7
I1
saa(lp2442
(g2430
NS'0'
S'E'
tp2443
a(dp2444
g7
F0.5
saa(lp2445
(S'Shield Cell Bank'
p2446
NS'1'
S'A'
tp2447
a(dp2448
g7
F1.3
saa(lp2449
(g2446
NS'1'
S'B'
tp2450
a(dp2451
g7
I2
saa(lp2452
(g2446
NS'1'
S'C'
tp2453
a(dp2454
g7
F1.3
saa(lp2455
(g2446
NS'1'
S'D'
tp2456
a(dp2457
g7
F0.5
saa(lp2458
(g2446
NS'1'
S'E'
tp2459
a(dp2460
g7
F1.3
saa(lp2461
(g2446
NS'2'
S'A'
tp2462
a(dp2463
g7
F2.5
saa(lp2464
(g2446
NS'2'
S'B'
tp2465
a(dp2466
g7
I4
saa(lp2467
(g2446
NS'2'
S'C'
tp2468
a(dp2469
g7
F2.5
saa(lp2470
(g2446
NS'2'
S'D'
tp2471
a(dp2472
g7
I1
saa(lp2473
(g2446
NS'2'
S'E'
tp2474
a(dp2475
g7
F2.5
saa(lp2476
(g2446
NS'3'
S'A'
tp2477
a(dp2478
g7
I5
saa(lp2479
(g2446
NS'3'
S'B'
tp2480
a(dp2481
g7
I8
saa(lp2482
(g2446
NS'3'
S'C'
tp2483
a(dp2484
g7
I5
saa(lp2485
(g2446
NS'3'
S'D'
tp2486
a(dp2487
g7
I2
saa(lp2488
(g2446
NS'3'
S'E'
tp2489
a(dp2490
g7
I5
saa(lp2491
(g2446
NS'4'
S'A'
tp2492
a(dp2493
g7
I10
saa(lp2494
(g2446
NS'4'
S'B'
tp2495
a(dp2496
g7
I16
saa(lp2497
(g2446
NS'4'
S'C'
tp2498
a(dp2499
g7
I10
saa(lp2500
(g2446
NS'4'
S'D'
tp2501
a(dp2502
g7
I4
saa(lp2503
(g2446
NS'4'
S'E'
tp2504
a(dp2505
g7
I10
saa(lp2506
(g2446
NS'5'
S'A'
tp2507
a(dp2508
g7
I20
saa(lp2509
(g2446
NS'5'
S'B'
tp2510
a(dp2511
g7
I32
saa(lp2512
(g2446
NS'5'
S'C'
tp2513
a(dp2514
g7
I20
saa(lp2515
(g2446
NS'5'
S'D'
tp2516
a(dp2517
g7
I8
saa(lp2518
(g2446
NS'5'
S'E'
tp2519
a(dp2520
g7
I20
saa(lp2521
(g2446
NS'6'
S'A'
tp2522
a(dp2523
g7
I40
saa(lp2524
(g2446
NS'6'
S'B'
tp2525
a(dp2526
g7
I64
saa(lp2527
(g2446
NS'6'
S'C'
tp2528
a(dp2529
g7
I40
saa(lp2530
(g2446
NS'6'
S'D'
tp2531
a(dp2532
g7
I16
saa(lp2533
(g2446
NS'6'
S'E'
tp2534
a(dp2535
g7
I40
saa(lp2536
(g2446
NS'7'
S'A'
tp2537
a(dp2538
g7
I80
saa(lp2539
(g2446
NS'7'
S'B'
tp2540
a(dp2541
g7
I128
saa(lp2542
(g2446
NS'7'
S'C'
tp2543
a(dp2544
g7
I80
saa(lp2545
(g2446
NS'7'
S'D'
tp2546
a(dp2547
g7
I32
saa(lp2548
(g2446
NS'7'
S'E'
tp2549
a(dp2550
g7
I80
saa(lp2551
(g2446
NS'8'
S'A'
tp2552
a(dp2553
g7
I160
saa(lp2554
(g2446
NS'8'
S'B'
tp2555
a(dp2556
g7
I256
saa(lp2557
(g2446
NS'8'
S'C'
tp2558
a(dp2559
g7
I160
saa(lp2560
(g2446
NS'8'
S'D'
tp2561
a(dp2562
g7
I64
saa(lp2563
(g2446
NS'8'
S'E'
tp2564
a(dp2565
g7
I160
saa(lp2566
(S'Shield Generator'
p2567
NS'1'
S'A'
tp2568
a(dp2569
g7
F1.3
saa(lp2570
(g2567
NS'2'
S'A'
tp2571
a(dp2572
g7
F2.5
saa(lp2573
(g2567
NS'2'
S'B'
tp2574
a(dp2575
g7
I4
saa(lp2576
(g2567
NS'2'
S'C'
tp2577
a(dp2578
g7
F2.5
saa(lp2579
(g2567
NS'2'
S'D'
tp2580
a(dp2581
g7
I1
saa(lp2582
(g2567
NS'2'
S'E'
tp2583
a(dp2584
g7
F2.5
saa(lp2585
(g2567
NS'3'
S'A'
tp2586
a(dp2587
g7
I5
saa(lp2588
(g2567
NS'3'
S'B'
tp2589
a(dp2590
g7
I8
saa(lp2591
(g2567
NS'3'
S'C'
tp2592
a(dp2593
g7
I5
saa(lp2594
(g2567
NS'3'
S'D'
tp2595
a(dp2596
g7
I2
saa(lp2597
(g2567
NS'3'
S'E'
tp2598
a(dp2599
g7
I5
saa(lp2600
(g2567
NS'4'
S'A'
tp2601
a(dp2602
g7
I10
saa(lp2603
(g2567
NS'4'
S'B'
tp2604
a(dp2605
g7
I16
saa(lp2606
(g2567
NS'4'
S'C'
tp2607
a(dp2608
g7
I10
saa(lp2609
(g2567
NS'4'
S'D'
tp2610
a(dp2611
g7
I4
saa(lp2612
(g2567
NS'4'
S'E'
tp2613
a(dp2614
g7
I10
saa(lp2615
(g2567
NS'5'
S'A'
tp2616
a(dp2617
g7
I20
saa(lp2618
(g2567
NS'5'
S'B'
tp2619
a(dp2620
g7
I32
saa(lp2621
(g2567
NS'5'
S'C'
tp2622
a(dp2623
g7
I20
saa(lp2624
(g2567
NS'5'
S'D'
tp2625
a(dp2626
g7
I8
saa(lp2627
(g2567
NS'5'
S'E'
tp2628
a(dp2629
g7
I20
saa(lp2630
(g2567
NS'6'
S'A'
tp2631
a(dp2632
g7
I40
saa(lp2633
(g2567
NS'6'
S'B'
tp2634
a(dp2635
g7
I64
saa(lp2636
(g2567
NS'6'
S'C'
tp2637
a(dp2638
g7
I40
saa(lp2639
(g2567
NS'6'
S'D'
tp2640
a(dp2641
g7
I16
saa(lp2642
(g2567
NS'6'
S'E'
tp2643
a(dp2644
g7
I40
saa(lp2645
(g2567
NS'7'
S'A'
tp2646
a(dp2647
g7
I80
saa(lp2648
(g2567
NS'7'
S'B'
tp2649
a(dp2650
g7
I128
saa(lp2651
(g2567
NS'7'
S'C'
tp2652
a(dp2653
g7
I80
saa(lp2654
(g2567
NS'7'
S'D'
tp2655
a(dp2656
g7
I32
saa(lp2657
(g2567
NS'7'
S'E'
tp2658
a(dp2659
g7
I80
saa(lp2660
(g2567
NS'8'
S'A'
tp2661
a(dp2662
g7
I160
saa(lp2663
(g2567
NS'8'
S'B'
tp2664
a(dp2665
g7
I256
saa(lp2666
(g2567
NS'8'
S'C'
tp2667
a(dp2668
g7
I160
saa(lp2669
(g2567
NS'8'
S'D'
tp2670
a(dp2671
g7
I64
saa(lp2672
(g2567
NS'8'
S'E'
tp2673
a(dp2674
g7
I160
saa(lp2675
(S'Shock Mine Launcher'
p2676
NS'1'
S'I'
tp2677
a(dp2678
g7
I2
saa(lp2679
(S'Shutdown Field Neutraliser'
p2680
NS'0'
S'F'
tp2681
a(dp2682
g7
F1.3
saa(lp2683
(S'Standard Docking Computer'
p2684
NS'1'
S'E'
tp2685
a(dp2686
g7
I0
saa(lp2687
(S'Thrusters'
p2688
NS'2'
S'A'
tp2689
a(dp2690
g7
F2.5
saa(lp2691
(g2688
NS'2'
S'B'
tp2692
a(dp2693
g7
I4
saa(lp2694
(g2688
NS'2'
S'C'
tp2695
a(dp2696
g7
F2.5
saa(lp2697
(g2688
NS'2'
S'D'
tp2698
a(dp2699
g7
I1
saa(lp2700
(g2688
NS'2'
S'E'
tp2701
a(dp2702
g7
F2.5
saa(lp2703
(g2688
NS'3'
S'A'
tp2704
a(dp2705
g7
I5
saa(lp2706
(g2688
NS'3'
S'B'
tp2707
a(dp2708
g7
I8
saa(lp2709
(g2688
NS'3'
S'C'
tp2710
a(dp2711
g7
I5
saa(lp2712
(g2688
NS'3'
S'D'
tp2713
a(dp2714
g7
I2
saa(lp2715
(g2688
NS'3'
S'E'
tp2716
a(dp2717
g7
I5
saa(lp2718
(g2688
NS'4'
S'A'
tp2719
a(dp2720
g7
I10
saa(lp2721
(g2688
NS'4'
S'B'
tp2722
a(dp2723
g7
I16
saa(lp2724
(g2688
NS'4'
S'C'
tp2725
a(dp2726
g7
I10
saa(lp2727
(g2688
NS'4'
S'D'
tp2728
a(dp2729
g7
I4
saa(lp2730
(g2688
NS'4'
S'E'
tp2731
a(dp2732
g7
I10
saa(lp2733
(g2688
NS'5'
S'A'
tp2734
a(dp2735
g7
I20
saa(lp2736
(g2688
NS'5'
S'B'
tp2737
a(dp2738
g7
I32
saa(lp2739
(g2688
NS'5'
S'C'
tp2740
a(dp2741
g7
I20
saa(lp2742
(g2688
NS'5'
S'D'
tp2743
a(dp2744
g7
I8
saa(lp2745
(g2688
NS'5'
S'E'
tp2746
a(dp2747
g7
I20
saa(lp2748
(g2688
NS'6'
S'A'
tp2749
a(dp2750
g7
I40
saa(lp2751
(g2688
NS'6'
S'B'
tp2752
a(dp2753
g7
I64
saa(lp2754
(g2688
NS'6'
S'C'
tp2755
a(dp2756
g7
I40
saa(lp2757
(g2688
NS'6'
S'D'
tp2758
a(dp2759
g7
I16
saa(lp2760
(g2688
NS'6'
S'E'
tp2761
a(dp2762
g7
I40
saa(lp2763
(g2688
NS'7'
S'A'
tp2764
a(dp2765
g7
I80
saa(lp2766
(g2688
NS'7'
S'B'
tp2767
a(dp2768
g7
I128
saa(lp2769
(g2688
NS'7'
S'C'
tp2770
a(dp2771
g7
I80
saa(lp2772
(g2688
NS'7'
S'D'
tp2773
a(dp2774
g7
I32
saa(lp2775
(g2688
NS'7'
S'E'
tp2776
a(dp2777
g7
I80
saa(lp2778
(g2688
NS'8'
S'A'
tp2779
a(dp2780
g7
I160
saa(lp2781
(g2688
NS'8'
S'B'
tp2782
a(dp2783
g7
I256
saa(lp2784
(g2688
NS'8'
S'C'
tp2785
a(dp2786
g7
I160
saa(lp2787
(g2688
NS'8'
S'D'
tp2788
a(dp2789
g7
I64
saa(lp2790
(g2688
NS'8'
S'E'
tp2791
a(dp2792
g7
I160
saa(lp2793
(S'Torpedo Pylon'
p2794
NS'1'
S'I'
tp2795
a(dp2796
g7
I2
saa(lp2797
(g2794
NS'2'
S'I'
tp2798
a(dp2799
g7
I4
saa(lp2800
(S'Xeno Scanner'
p2801
NS'0'
S'E'
tp2802
a(dp2803
g7
F1.3
saatRp2804
.