ccollections
OrderedDict
p1
((lp2
(lp3
(S'AX Missile Rack'
p4
NS'2'
S'B'
tp5
a(dp6
S'mass'
p7
I4
saa(lp8
(g4
NS'3'
S'A'
tp9
a(dp10
g7
I8
saa(lp11
(S'AX Multi-Cannon'
p12
NS'2'
S'E'
tp13
a(dp14
g7
I4
saa(lp15
(g12
NS'2'
S'F'
tp16
a(dp17
g7
I4
saa(lp18
(g12
NS'3'
S'C'
tp19
a(dp20
g7
I8
saa(lp21
(g12
NS'3'
S'E'
tp22
a(dp23
g7
I8
saa(lp24
(S'Advanced Discovery Scanner'
p25
NS'1'
S'C'
tp26
a(dp27
g7
I2
saa(lp28
(S'Advanced Plasma Accelerator'
p29
NS'3'
S'B'
tp30
a(dp31
g7
I8
saa(lp32
(S'Auto Field-Maintenance Unit'
p33
NS'1'
S'A'
tp34
a(dp35
g7
I0
saa(lp36
(g33
NS'1'
S'B'
tp37
a(dp38
g7
I0
saa(lp39
(g33
NS'1'
S'C'
tp40
a(dp41
g7
I0
saa(lp42
(g33
NS'1'
S'D'
tp43
a(dp44
g7
I0
saa(lp45
(g33
NS'1'
S'E'
tp46
a(dp47
g7
I0
saa(lp48
(g33
NS'2'
S'A'
tp49
a(dp50
g7
I0
saa(lp51
(g33
NS'2'
S'B'
tp52
a(dp53
g7
I0
saa(lp54
(g33
NS'2'
S'C'
tp55
a(dp56
g7
I0
saa(lp57
(g33
NS'2'
S'D'
tp58
a(dp59
g7
I0
saa(lp60
(g33
NS'2'
S'E'
tp61
a(dp62
g7
I0
saa(lp63
(g33
NS'3'
S'A'
tp64
a(dp65
g7
I0
saa(lp66
(g33
NS'3'
S'B'
tp67
a(dp68
g7
I0
saa(lp69
(g33
NS'3'
S'C'
tp70
a(dp71
g7
I0
saa(lp72
(g33
NS'3'
S'D'
tp73
a(dp74
g7
I0
saa(lp75
(g33
NS'3'
S'E'
tp76
a(dp77
g7
I0
saa(lp78
(g33
NS'4'
S'A'
tp79
a(dp80
g7
I0
saa(lp81
(g33
NS'4'
S'B'
tp82
a(dp83
g7
I0
saa(lp84
(g33
NS'4'
S'C'
tp85
a(dp86
g7
I0
saa(lp87
(g33
NS'4'
S'D'
tp88
a(dp89
g7
I0
saa(lp90
(g33
NS'4'
S'E'
tp91
a(dp92
g7
I0
saa(lp93
(g33
NS'5'
S'A'
tp94
a(dp95
g7
I0
saa(lp96
(g33
NS'5'
S'B'
tp97
a(dp98
g7
I0
saa(lp99
(g33
NS'5'
S'C'
tp100
a(dp101
g7
I0
saa(lp102
(g33
NS'5'
S'D'
tp103
a(dp104
g7
I0
saa(lp105
(g33
NS'5'
S'E'
tp106
a(dp107
g7
I0
saa(lp108
(g33
NS'6'
S'A'
tp109
a(dp110
g7
I0
saa(lp111
(g33
NS'6'
S'B'
tp112
a(dp113
g7
I0
saa(lp114
(g33
NS'6'
S'C'
tp115
a(dp116
g7
I0
saa(lp117
(g33
NS'6'
S'D'
tp118
a(dp119
g7
I0
saa(lp120
(g33
NS'6'
S'E'
tp121
a(dp122
g7
I0
saa(lp123
(g33
NS'7'
S'A'
tp124
a(dp125
g7
I0
saa(lp126
(g33
NS'7'
S'B'
tp127
a(dp128
g7
I0
saa(lp129
(g33
NS'7'
S'C'
tp130
a(dp131
g7
I0
saa(lp132
(g33
NS'7'
S'D'
tp133
a(dp134
g7
I0
saa(lp135
(g33
NS'7'
S'E'
tp136
a(dp137
g7
I0
saa(lp138
(g33
NS'8'
S'A'
tp139
a(dp140
g7
I0
saa(lp141
(g33
NS'8'
S'B'
tp142
a(dp143
g7
I0
saa(lp144
(g33
NS'8'
S'C'
tp145
a(dp146
g7
I0
saa(lp147
(g33
NS'8'
S'D'
tp148
a(dp149
g7
I0
saa(lp150
(g33
NS'8'
S'E'
tp151
a(dp152
g7
I0
saa(lp153
(S'Basic Discovery Scanner'
p154
NS'1'
S'E'
tp155
a(dp156
g7
I2
saa(lp157
(S'Beam Laser'
p158
NS'1'
S'E'
tp159
a(dp160
g7
I2
saa(lp161
(g158
NS'1'
S'F'
tp162
a(dp163
g7
I2
saa(lp164
(g158
NS'2'
S'D'
tp165
a(dp166
g7
I4
saa(lp167
(g158
NS'2'
S'E'
tp168
a(dp169
g7
I4
saa(lp170
(g158
NS'3'
S'C'
tp171
a(dp172
g7
I8
saa(lp173
(g158
NS'3'
S'D'
tp174
a(dp175
g7
I8
saa(lp176
(g158
NS'4'
S'A'
tp177
a(dp178
g7
I16
saa(lp179
(S'Bi-Weave Shield Generator'
p180
NS'1'
S'C'
tp181
a(dp182
g7
F1.3
saa(lp183
(g180
NS'2'
S'C'
tp184
a(dp185
g7
F2.5
saa(lp186
(g180
NS'3'
S'C'
tp187
a(dp188
g7
I5
saa(lp189
(g180
NS'4'
S'C'
tp190
a(dp191
g7
I10
saa(lp192
(g180
NS'5'
S'C'
tp193
a(dp194
g7
I20
saa(lp195
(g180
NS'6'
S'C'
tp196
a(dp197
g7
I40
saa(lp198
(g180
NS'7'
S'C'
tp199
a(dp200
g7
I80
saa(lp201
(g180
NS'8'
S'C'
tp202
a(dp203
g7
I160
saa(lp204
(S'Burst Laser'
p205
NS'1'
S'F'
tp206
a(dp207
g7
I2
saa(lp208
(g205
NS'1'
S'G'
tp209
a(dp210
g7
I2
saa(lp211
(g205
NS'2'
S'E'
tp212
a(dp213
g7
I4
saa(lp214
(g205
NS'2'
S'F'
tp215
a(dp216
g7
I4
saa(lp217
(g205
NS'3'
S'D'
tp218
a(dp219
g7
I8
saa(lp220
(g205
NS'3'
S'E'
tp221
a(dp222
g7
I8
saa(lp223
(g205
NS'4'
S'E'
tp224
a(dp225
g7
I16
saa(lp226
(S'Business Class Passenger Cabin'
p227
NS'3'
S'D'
tp228
a(dp229
g7
I5
saa(lp230
(g227
NS'4'
S'D'
tp231
a(dp232
g7
I10
saa(lp233
(g227
NS'5'
S'D'
tp234
a(dp235
g7
I20
saa(lp236
(g227
NS'6'
S'D'
tp237
a(dp238
g7
I40
saa(lp239
(S'Cannon'
p240
NS'1'
S'D'
tp241
a(dp242
g7
I2
saa(lp243
(g240
NS'1'
S'E'
tp244
a(dp245
g7
I2
saa(lp246
(g240
NS'1'
S'F'
tp247
a(dp248
g7
I2
saa(lp249
(g240
NS'2'
S'D'
tp250
a(dp251
g7
I4
saa(lp252
(g240
NS'2'
S'E'
tp253
a(dp254
g7
I4
saa(lp255
(g240
NS'3'
S'C'
tp256
a(dp257
g7
I8
saa(lp258
(g240
NS'3'
S'D'
tp259
a(dp260
g7
I8
saa(lp261
(g240
NS'4'
S'B'
tp262
a(dp263
g7
I16
saa(lp264
(S'Cargo Rack'
p265
NS'1'
S'E'
tp266
a(dp267
g7
I0
saa(lp268
(g265
NS'2'
S'E'
tp269
a(dp270
g7
I0
saa(lp271
(g265
NS'3'
S'E'
tp272
a(dp273
g7
I0
saa(lp274
(g265
NS'4'
S'E'
tp275
a(dp276
g7
I0
saa(lp277
(g265
NS'5'
S'E'
tp278
a(dp279
g7
I0
saa(lp280
(g265
NS'6'
S'E'
tp281
a(dp282
g7
I0
saa(lp283
(g265
NS'7'
S'E'
tp284
a(dp285
g7
I0
saa(lp286
(g265
NS'8'
S'E'
tp287
a(dp288
g7
I0
saa(lp289
(S'Cargo Scanner'
p290
NS'0'
S'A'
tp291
a(dp292
g7
F1.3
saa(lp293
(g290
NS'0'
S'B'
tp294
a(dp295
g7
F1.3
saa(lp296
(g290
NS'0'
S'C'
tp297
a(dp298
g7
F1.3
saa(lp299
(g290
NS'0'
S'D'
tp300
a(dp301
g7
F1.3
saa(lp302
(g290
NS'0'
S'E'
tp303
a(dp304
g7
F1.3
saa(lp305
(S'Chaff Launcher'
p306
NS'0'
S'I'
tp307
a(dp308
g7
F1.3
saa(lp309
(S'Collector Limpet Controller'
p310
NS'1'
S'A'
tp311
a(dp312
g7
I2
saa(lp313
(g310
NS'1'
S'B'
tp314
a(dp315
g7
I2
saa(lp316
(g310
NS'1'
S'C'
tp317
a(dp318
g7
F1.3
saa(lp319
(g310
NS'1'
S'D'
tp320
a(dp321
g7
F0.5
saa(lp322
(g310
NS'1'
S'E'
tp323
a(dp324
g7
F0.5
saa(lp325
(g310
NS'3'
S'A'
tp326
a(dp327
g7
I8
saa(lp328
(g310
NS'3'
S'B'
tp329
a(dp330
g7
I8
saa(lp331
(g310
NS'3'
S'C'
tp332
a(dp333
g7
I5
saa(lp334
(g310
NS'3'
S'D'
tp335
a(dp336
g7
I2
saa(lp337
(g310
NS'3'
S'E'
tp338
a(dp339
g7
I2
saa(lp340
(g310
NS'5'
S'A'
tp341
a(dp342
g7
I32
saa(lp343
(g310
NS'5'
S'B'
tp344
a(dp345
g7
I32
saa(lp346
(g310
NS'5'
S'C'
tp347
a(dp348
g7
I20
saa(lp349
(g310
NS'5'
S'D'
tp350
a(dp351
g7
I8
saa(lp352
(g310
NS'5'
S'E'
tp353
a(dp354
g7
I8
saa(lp355
(g310
NS'7'
S'A'
tp356
a(dp357
g7
I128
saa(lp358
(g310
NS'7'
S'B'
tp359
a(dp360
g7
I128
saa(lp361
(g310
NS'7'
S'C'
tp362
a(dp363
g7
I80
saa(lp364
(g310
NS'7'
S'D'
tp365
a(dp366
g7
I32
saa(lp367
(g310
NS'7'
S'E'
tp368
a(dp369
g7
I32
saa(lp370
(S'Corrosion Resistant Cargo Rack'
p371
NS'1'
S'E'
tp372
a(dp373
g7
I0
saa(lp374
(g371
NS'1'
S'F'
tp375
a(dp376
g7
I0
saa(lp377
(S'Cytoscrambler Burst Laser'
p378
NS'1'
S'F'
tp379
a(dp380
g7
I2
saa(lp381
(S'Decontamination Limpet Controller'
p382
NS'1'
S'E'
tp383
a(dp384
g7
F1.3
saa(lp385
(g382
NS'3'
S'E'
tp386
a(dp387
g7
I2
saa(lp388
(g382
NS'5'
S'E'
tp389
a(dp390
g7
I20
saa(lp391
(g382
NS'7'
S'E'
tp392
a(dp393
g7
I128
saa(lp394
(S'Detailed Surface Scanner'
p395
NS'1'
S'C'
tp396
a(dp397
g7
F1.3
saa(lp398
(S'Economy Class Passenger Cabin'
p399
NS'2'
S'E'
tp400
a(dp401
g7
F2.5
saa(lp402
(g399
NS'3'
S'E'
tp403
a(dp404
g7
I5
saa(lp405
(g399
NS'4'
S'E'
tp406
a(dp407
g7
I10
saa(lp408
(g399
NS'5'
S'E'
tp409
a(dp410
g7
I20
saa(lp411
(g399
NS'6'
S'E'
tp412
a(dp413
g7
I40
saa(lp414
(S'Electronic Countermeasure'
p415
NS'0'
S'F'
tp416
a(dp417
g7
F1.3
saa(lp418
(S'Enforcer Cannon'
p419
NS'1'
S'F'
tp420
a(dp421
g7
I2
saa(lp422
(S'Enhanced Performance Thrusters'
p423
NS'2'
S'A'
tp424
a(dp425
g7
F2.5
saa(lp426
(g423
NS'3'
S'A'
tp427
a(dp428
g7
I5
saa(lp429
(S'Fighter Hangar'
p430
NS'5'
S'D'
tp431
a(dp432
g7
I20
saa(lp433
(g430
NS'6'
S'D'
tp434
a(dp435
g7
I40
saa(lp436
(g430
NS'7'
S'D'
tp437
a(dp438
g7
I60
saa(lp439
(S'First Class Passenger Cabin'
p440
NS'4'
S'C'
tp441
a(dp442
g7
I10
saa(lp443
(g440
NS'5'
S'C'
tp444
a(dp445
g7
I20
saa(lp446
(g440
NS'6'
S'C'
tp447
a(dp448
g7
I40
saa(lp449
(S'Fragment Cannon'
p450
NS'1'
S'E'
tp451
a(dp452
g7
I2
saa(lp453
(g450
NS'2'
S'A'
tp454
a(dp455
g7
I4
saa(lp456
(g450
NS'2'
S'D'
tp457
a(dp458
g7
I4
saa(lp459
(g450
NS'3'
S'C'
tp460
a(dp461
g7
I8
saa(lp462
(S'Frame Shift Drive'
p463
NS'2'
S'A'
tp464
a(dp465
S'optmass'
p466
I90
sS'fuelmul'
p467
F0.012
sg7
F2.5
sS'maxfuel'
p468
F0.90000000000000002
sS'fuelpower'
p469
I2
saa(lp470
(g463
NS'2'
S'B'
tp471
a(dp472
g466
I75
sg467
F0.01
sg7
I4
sg468
F0.80000000000000004
sg469
I2
saa(lp473
(g463
NS'2'
S'C'
tp474
a(dp475
g466
I60
sg467
F0.0080000000000000002
sg7
F2.5
sg468
F0.59999999999999998
sg469
I2
saa(lp476
(g463
NS'2'
S'D'
tp477
a(dp478
g466
I54
sg467
F0.01
sg7
I1
sg468
F0.59999999999999998
sg469
I2
saa(lp479
(g463
NS'2'
S'E'
tp480
a(dp481
g466
I48
sg467
F0.010999999999999999
sg7
F2.5
sg468
F0.59999999999999998
sg469
I2
saa(lp482
(g463
NS'3'
S'A'
tp483
a(dp484
g466
I150
sg467
F0.012
sg7
I5
sg468
F1.8
sg469
F2.1499999999999999
saa(lp485
(g463
NS'3'
S'B'
tp486
a(dp487
g466
I125
sg467
F0.01
sg7
I8
sg468
F1.5
sg469
F2.1499999999999999
saa(lp488
(g463
NS'3'
S'C'
tp489
a(dp490
g466
I100
sg467
F0.0080000000000000002
sg7
I5
sg468
F1.2
sg469
F2.1499999999999999
saa(lp491
(g463
NS'3'
S'D'
tp492
a(dp493
g466
I90
sg467
F0.01
sg7
I2
sg468
F1.2
sg469
F2.1499999999999999
saa(lp494
(g463
NS'3'
S'E'
tp495
a(dp496
g466
I80
sg467
F0.010999999999999999
sg7
I5
sg468
F1.2
sg469
F2.1499999999999999
saa(lp497
(g463
NS'4'
S'A'
tp498
a(dp499
g466
I525
sg467
F0.012
sg7
I10
sg468
I3
sg469
F2.2999999999999998
saa(lp500
(g463
NS'4'
S'B'
tp501
a(dp502
g466
F437.5
sg467
F0.01
sg7
I16
sg468
F2.5
sg469
F2.2999999999999998
saa(lp503
(g463
NS'4'
S'C'
tp504
a(dp505
g466
I350
sg467
F0.0080000000000000002
sg7
I10
sg468
I2
sg469
F2.2999999999999998
saa(lp506
(g463
NS'4'
S'D'
tp507
a(dp508
g466
I315
sg467
F0.01
sg7
I4
sg468
I2
sg469
F2.2999999999999998
saa(lp509
(g463
NS'4'
S'E'
tp510
a(dp511
g466
I280
sg467
F0.010999999999999999
sg7
I10
sg468
I2
sg469
F2.2999999999999998
saa(lp512
(g463
NS'5'
S'A'
tp513
a(dp514
g466
I1050
sg467
F0.012
sg7
I20
sg468
I5
sg469
F2.4500000000000002
saa(lp515
(g463
NS'5'
S'B'
tp516
a(dp517
g466
I875
sg467
F0.01
sg7
I32
sg468
F4.0999999999999996
sg469
F2.4500000000000002
saa(lp518
(g463
NS'5'
S'C'
tp519
a(dp520
g466
I700
sg467
F0.0080000000000000002
sg7
I20
sg468
F3.2999999999999998
sg469
F2.4500000000000002
saa(lp521
(g463
NS'5'
S'D'
tp522
a(dp523
g466
I630
sg467
F0.01
sg7
I8
sg468
F3.2999999999999998
sg469
F2.4500000000000002
saa(lp524
(g463
NS'5'
S'E'
tp525
a(dp526
g466
I560
sg467
F0.010999999999999999
sg7
I20
sg468
F3.2999999999999998
sg469
F2.4500000000000002
saa(lp527
(g463
NS'6'
S'A'
tp528
a(dp529
g466
I1800
sg467
F0.012
sg7
I40
sg468
I8
sg469
F2.6000000000000001
saa(lp530
(g463
NS'6'
S'B'
tp531
a(dp532
g466
I1500
sg467
F0.01
sg7
I64
sg468
F6.5999999999999996
sg469
F2.6000000000000001
saa(lp533
(g463
NS'6'
S'C'
tp534
a(dp535
g466
I1200
sg467
F0.0080000000000000002
sg7
I40
sg468
F5.2999999999999998
sg469
F2.6000000000000001
saa(lp536
(g463
NS'6'
S'D'
tp537
a(dp538
g466
I1080
sg467
F0.01
sg7
I16
sg468
F5.2999999999999998
sg469
F2.6000000000000001
saa(lp539
(g463
NS'6'
S'E'
tp540
a(dp541
g466
I960
sg467
F0.010999999999999999
sg7
I40
sg468
F5.2999999999999998
sg469
F2.6000000000000001
saa(lp542
(g463
NS'7'
S'A'
tp543
a(dp544
g466
I2700
sg467
F0.012
sg7
I80
sg468
F12.800000000000001
sg469
F2.75
saa(lp545
(g463
NS'7'
S'B'
tp546
a(dp547
g466
I2250
sg467
F0.01
sg7
I128
sg468
F10.6
sg469
F2.75
saa(lp548
(g463
NS'7'
S'C'
tp549
a(dp550
g466
I1800
sg467
F0.0080000000000000002
sg7
I80
sg468
F8.5
sg469
F2.75
saa(lp551
(g463
NS'7'
S'D'
tp552
a(dp553
g466
I1620
sg467
F0.01
sg7
I32
sg468
F8.5
sg469
F2.75
saa(lp554
(g463
NS'7'
S'E'
tp555
a(dp556
g466
I1440
sg467
F0.010999999999999999
sg7
I80
sg468
F8.5
sg469
F2.75
saa(lp557
(g463
NS'8'
S'A'
tp558
a(dp559
g466
I0
sg467
F0.012
sg7
I160
sg468
I0
sg469
F2.8999999999999999
saa(lp560
(g463
NS'8'
S'B'
tp561
a(dp562
g466
I0
sg467
F0.01
sg7
I256
sg468
I0
sg469
F2.8999999999999999
saa(lp563
(g463
NS'8'
S'C'
tp564
a(dp565
g466
I0
sg467
F0.0080000000000000002
sg7
I160
sg468
I0
sg469
F2.8999999999999999
saa(lp566
(g463
NS'8'
S'D'
tp567
a(dp568
g466
I0
sg467
F0.01
sg7
I64
sg468
I0
sg469
F2.8999999999999999
saa(lp569
(g463
NS'8'
S'E'
tp570
a(dp571
g466
I0
sg467
F0.010999999999999999
sg7
I160
sg468
I0
sg469
F2.8999999999999999
saa(lp572
(S'Frame Shift Drive Interdictor'
p573
NS'1'
S'A'
tp574
a(dp575
g7
F1.3
saa(lp576
(g573
NS'1'
S'B'
tp577
a(dp578
g7
I2
saa(lp579
(g573
NS'1'
S'C'
tp580
a(dp581
g7
F1.3
saa(lp582
(g573
NS'1'
S'D'
tp583
a(dp584
g7
F0.5
saa(lp585
(g573
NS'1'
S'E'
tp586
a(dp587
g7
F1.3
saa(lp588
(g573
NS'2'
S'A'
tp589
a(dp590
g7
F2.5
saa(lp591
(g573
NS'2'
S'B'
tp592
a(dp593
g7
I4
saa(lp594
(g573
NS'2'
S'C'
tp595
a(dp596
g7
F2.5
saa(lp597
(g573
NS'2'
S'D'
tp598
a(dp599
g7
I1
saa(lp600
(g573
NS'2'
S'E'
tp601
a(dp602
g7
F2.5
saa(lp603
(g573
NS'3'
S'A'
tp604
a(dp605
g7
I5
saa(lp606
(g573
NS'3'
S'B'
tp607
a(dp608
g7
I8
saa(lp609
(g573
NS'3'
S'C'
tp610
a(dp611
g7
I5
saa(lp612
(g573
NS'3'
S'D'
tp613
a(dp614
g7
I2
saa(lp615
(g573
NS'3'
S'E'
tp616
a(dp617
g7
I5
saa(lp618
(g573
NS'4'
S'A'
tp619
a(dp620
g7
I10
saa(lp621
(g573
NS'4'
S'B'
tp622
a(dp623
g7
I16
saa(lp624
(g573
NS'4'
S'C'
tp625
a(dp626
g7
I10
saa(lp627
(g573
NS'4'
S'D'
tp628
a(dp629
g7
I4
saa(lp630
(g573
NS'4'
S'E'
tp631
a(dp632
g7
I10
saa(lp633
(S'Frame Shift Wake Scanner'
p634
NS'0'
S'A'
tp635
a(dp636
g7
F1.3
saa(lp637
(g634
NS'0'
S'B'
tp638
a(dp639
g7
F1.3
saa(lp640
(g634
NS'0'
S'C'
tp641
a(dp642
g7
F1.3
saa(lp643
(g634
NS'0'
S'D'
tp644
a(dp645
g7
F1.3
saa(lp646
(g634
NS'0'
S'E'
tp647
a(dp648
g7
F1.3
saa(lp649
(S'Fuel Scoop'
p650
NS'1'
S'A'
tp651
a(dp652
g7
I0
saa(lp653
(g650
NS'1'
S'B'
tp654
a(dp655
g7
I0
saa(lp656
(g650
NS'1'
S'C'
tp657
a(dp658
g7
I0
saa(lp659
(g650
NS'1'
S'D'
tp660
a(dp661
g7
I0
saa(lp662
(g650
NS'1'
S'E'
tp663
a(dp664
g7
I0
saa(lp665
(g650
NS'2'
S'A'
tp666
a(dp667
g7
I0
saa(lp668
(g650
NS'2'
S'B'
tp669
a(dp670
g7
I0
saa(lp671
(g650
NS'2'
S'C'
tp672
a(dp673
g7
I0
saa(lp674
(g650
NS'2'
S'D'
tp675
a(dp676
g7
I0
saa(lp677
(g650
NS'2'
S'E'
tp678
a(dp679
g7
I0
saa(lp680
(g650
NS'3'
S'A'
tp681
a(dp682
g7
I0
saa(lp683
(g650
NS'3'
S'B'
tp684
a(dp685
g7
I0
saa(lp686
(g650
NS'3'
S'C'
tp687
a(dp688
g7
I0
saa(lp689
(g650
NS'3'
S'D'
tp690
a(dp691
g7
I0
saa(lp692
(g650
NS'3'
S'E'
tp693
a(dp694
g7
I0
saa(lp695
(g650
NS'4'
S'A'
tp696
a(dp697
g7
I0
saa(lp698
(g650
NS'4'
S'B'
tp699
a(dp700
g7
I0
saa(lp701
(g650
NS'4'
S'C'
tp702
a(dp703
g7
I0
saa(lp704
(g650
NS'4'
S'D'
tp705
a(dp706
g7
I0
saa(lp707
(g650
NS'4'
S'E'
tp708
a(dp709
g7
I0
saa(lp710
(g650
NS'5'
S'A'
tp711
a(dp712
g7
I0
saa(lp713
(g650
NS'5'
S'B'
tp714
a(dp715
g7
I0
saa(lp716
(g650
NS'5'
S'C'
tp717
a(dp718
g7
I0
saa(lp719
(g650
NS'5'
S'D'
tp720
a(dp721
g7
I0
saa(lp722
(g650
NS'5'
S'E'
tp723
a(dp724
g7
I0
saa(lp725
(g650
NS'6'
S'A'
tp726
a(dp727
g7
I0
saa(lp728
(g650
NS'6'
S'B'
tp729
a(dp730
g7
I0
saa(lp731
(g650
NS'6'
S'C'
tp732
a(dp733
g7
I0
saa(lp734
(g650
NS'6'
S'D'
tp735
a(dp736
g7
I0
saa(lp737
(g650
NS'6'
S'E'
tp738
a(dp739
g7
I0
saa(lp740
(g650
NS'7'
S'A'
tp741
a(dp742
g7
I0
saa(lp743
(g650
NS'7'
S'B'
tp744
a(dp745
g7
I0
saa(lp746
(g650
NS'7'
S'C'
tp747
a(dp748
g7
I0
saa(lp749
(g650
NS'7'
S'D'
tp750
a(dp751
g7
I0
saa(lp752
(g650
NS'7'
S'E'
tp753
a(dp754
g7
I0
saa(lp755
(g650
NS'8'
S'A'
tp756
a(dp757
g7
I0
saa(lp758
(g650
NS'8'
S'B'
tp759
a(dp760
g7
I0
saa(lp761
(g650
NS'8'
S'C'
tp762
a(dp763
g7
I0
saa(lp764
(g650
NS'8'
S'D'
tp765
a(dp766
g7
I0
saa(lp767
(g650
NS'8'
S'E'
tp768
a(dp769
g7
I0
saa(lp770
(S'Fuel Tank'
p771
NS'1'
S'C'
tp772
a(dp773
g7
I0
saa(lp774
(g771
NS'2'
S'C'
tp775
a(dp776
g7
I0
saa(lp777
(g771
NS'3'
S'C'
tp778
a(dp779
g7
I0
saa(lp780
(g771
NS'4'
S'C'
tp781
a(dp782
g7
I0
saa(lp783
(g771
NS'5'
S'C'
tp784
a(dp785
g7
I0
saa(lp786
(g771
NS'6'
S'C'
tp787
a(dp788
g7
I0
saa(lp789
(g771
NS'7'
S'C'
tp790
a(dp791
g7
I0
saa(lp792
(g771
NS'8'
S'C'
tp793
a(dp794
g7
I0
saa(lp795
(S'Fuel Transfer Limpet Controller'
p796
NS'1'
S'A'
tp797
a(dp798
g7
F1.3
saa(lp799
(g796
NS'1'
S'B'
tp800
a(dp801
g7
I2
saa(lp802
(g796
NS'1'
S'C'
tp803
a(dp804
g7
F1.3
saa(lp805
(g796
NS'1'
S'D'
tp806
a(dp807
g7
F0.5
saa(lp808
(g796
NS'1'
S'E'
tp809
a(dp810
g7
F1.3
saa(lp811
(g796
NS'3'
S'A'
tp812
a(dp813
g7
I5
saa(lp814
(g796
NS'3'
S'B'
tp815
a(dp816
g7
I8
saa(lp817
(g796
NS'3'
S'C'
tp818
a(dp819
g7
I5
saa(lp820
(g796
NS'3'
S'D'
tp821
a(dp822
g7
I2
saa(lp823
(g796
NS'3'
S'E'
tp824
a(dp825
g7
I5
saa(lp826
(g796
NS'5'
S'A'
tp827
a(dp828
g7
I20
saa(lp829
(g796
NS'5'
S'B'
tp830
a(dp831
g7
I32
saa(lp832
(g796
NS'5'
S'C'
tp833
a(dp834
g7
I20
saa(lp835
(g796
NS'5'
S'D'
tp836
a(dp837
g7
I8
saa(lp838
(g796
NS'5'
S'E'
tp839
a(dp840
g7
I20
saa(lp841
(g796
NS'7'
S'A'
tp842
a(dp843
g7
I80
saa(lp844
(g796
NS'7'
S'B'
tp845
a(dp846
g7
I128
saa(lp847
(g796
NS'7'
S'C'
tp848
a(dp849
g7
I80
saa(lp850
(g796
NS'7'
S'D'
tp851
a(dp852
g7
I32
saa(lp853
(g796
NS'7'
S'E'
tp854
a(dp855
g7
I80
saa(lp856
(S'Hatch Breaker Limpet Controller'
p857
NS'1'
S'A'
tp858
a(dp859
g7
F1.3
saa(lp860
(g857
NS'1'
S'B'
tp861
a(dp862
g7
I2
saa(lp863
(g857
NS'1'
S'C'
tp864
a(dp865
g7
F1.3
saa(lp866
(g857
NS'1'
S'D'
tp867
a(dp868
g7
F0.5
saa(lp869
(g857
NS'1'
S'E'
tp870
a(dp871
g7
F1.3
saa(lp872
(g857
NS'3'
S'A'
tp873
a(dp874
g7
I5
saa(lp875
(g857
NS'3'
S'B'
tp876
a(dp877
g7
I8
saa(lp878
(g857
NS'3'
S'C'
tp879
a(dp880
g7
I5
saa(lp881
(g857
NS'3'
S'D'
tp882
a(dp883
g7
I2
saa(lp884
(g857
NS'3'
S'E'
tp885
a(dp886
g7
I5
saa(lp887
(g857
NS'5'
S'A'
tp888
a(dp889
g7
I20
saa(lp890
(g857
NS'5'
S'B'
tp891
a(dp892
g7
I32
saa(lp893
(g857
NS'5'
S'C'
tp894
a(dp895
g7
I20
saa(lp896
(g857
NS'5'
S'D'
tp897
a(dp898
g7
I8
saa(lp899
(g857
NS'5'
S'E'
tp900
a(dp901
g7
I20
saa(lp902
(g857
NS'7'
S'A'
tp903
a(dp904
g7
I90
saa(lp905
(g857
NS'7'
S'B'
tp906
a(dp907
g7
I128
saa(lp908
(g857
NS'7'
S'C'
tp909
a(dp910
g7
I80
saa(lp911
(g857
NS'7'
S'D'
tp912
a(dp913
g7
I32
saa(lp914
(g857
NS'7'
S'E'
tp915
a(dp916
g7
I80
saa(lp917
(S'Heat Sink Launcher'
p918
NS'0'
S'I'
tp919
a(dp920
g7
F1.3
saa(lp921
(S'Hull Reinforcement Package'
p922
NS'1'
S'D'
tp923
a(dp924
g7
I1
saa(lp925
(g922
NS'1'
S'E'
tp926
a(dp927
g7
I2
saa(lp928
(g922
NS'2'
S'D'
tp929
a(dp930
g7
I2
saa(lp931
(g922
NS'2'
S'E'
tp932
a(dp933
g7
I4
saa(lp934
(g922
NS'3'
S'D'
tp935
a(dp936
g7
I4
saa(lp937
(g922
NS'3'
S'E'
tp938
a(dp939
g7
I8
saa(lp940
(g922
NS'4'
S'D'
tp941
a(dp942
g7
I8
saa(lp943
(g922
NS'4'
S'E'
tp944
a(dp945
g7
I16
saa(lp946
(g922
NS'5'
S'D'
tp947
a(dp948
g7
I16
saa(lp949
(g922
NS'5'
S'E'
tp950
a(dp951
g7
I32
saa(lp952
(S'Imperial Hammer Rail Gun'
p953
NS'2'
S'B'
tp954
a(dp955
g7
I4
saa(lp956
(S'Intermediate Discovery Scanner'
p957
NS'1'
S'D'
tp958
a(dp959
g7
I2
saa(lp960
(S'Kill Warrant Scanner'
p961
NS'0'
S'A'
tp962
a(dp963
g7
F1.3
saa(lp964
(g961
NS'0'
S'B'
tp965
a(dp966
g7
F1.3
saa(lp967
(g961
NS'0'
S'C'
tp968
a(dp969
g7
F1.3
saa(lp970
(g961
NS'0'
S'D'
tp971
a(dp972
g7
F1.3
saa(lp973
(g961
NS'0'
S'E'
tp974
a(dp975
g7
F1.3
saa(lp976
(S'Life Support'
p977
NS'1'
S'A'
tp978
a(dp979
g7
F1.3
saa(lp980
(g977
NS'1'
S'B'
tp981
a(dp982
g7
I2
saa(lp983
(g977
NS'1'
S'C'
tp984
a(dp985
g7
F1.3
saa(lp986
(g977
NS'1'
S'D'
tp987
a(dp988
g7
F0.5
saa(lp989
(g977
NS'1'
S'E'
tp990
a(dp991
g7
F1.3
saa(lp992
(g977
NS'2'
S'A'
tp993
a(dp994
g7
F2.5
saa(lp995
(g977
NS'2'
S'B'
tp996
a(dp997
g7
I4
saa(lp998
(g977
NS'2'
S'C'
tp999
a(dp1000
g7
F2.5
saa(lp1001
(g977
NS'2'
S'D'
tp1002
a(dp1003
g7
I1
saa(lp1004
(g977
NS'2'
S'E'
tp1005
a(dp1006
g7
F2.5
saa(lp1007
(g977
NS'3'
S'A'
tp1008
a(dp1009
g7
I5
saa(lp1010
(g977
NS'3'
S'B'
tp1011
a(dp1012
g7
I8
saa(lp1013
(g977
NS'3'
S'C'
tp1014
a(dp1015
g7
I5
saa(lp1016
(g977
NS'3'
S'D'
tp1017
a(dp1018
g7
I2
saa(lp1019
(g977
NS'3'
S'E'
tp1020
a(dp1021
g7
I5
saa(lp1022
(g977
NS'4'
S'A'
tp1023
a(dp1024
g7
I10
saa(lp1025
(g977
NS'4'
S'B'
tp1026
a(dp1027
g7
I16
saa(lp1028
(g977
NS'4'
S'C'
tp1029
a(dp1030
g7
I10
saa(lp1031
(g977
NS'4'
S'D'
tp1032
a(dp1033
g7
I4
saa(lp1034
(g977
NS'4'
S'E'
tp1035
a(dp1036
g7
I10
saa(lp1037
(g977
NS'5'
S'A'
tp1038
a(dp1039
g7
I20
saa(lp1040
(g977
NS'5'
S'B'
tp1041
a(dp1042
g7
I32
saa(lp1043
(g977
NS'5'
S'C'
tp1044
a(dp1045
g7
I20
saa(lp1046
(g977
NS'5'
S'D'
tp1047
a(dp1048
g7
I8
saa(lp1049
(g977
NS'5'
S'E'
tp1050
a(dp1051
g7
I20
saa(lp1052
(g977
NS'6'
S'A'
tp1053
a(dp1054
g7
I40
saa(lp1055
(g977
NS'6'
S'B'
tp1056
a(dp1057
g7
I64
saa(lp1058
(g977
NS'6'
S'C'
tp1059
a(dp1060
g7
I40
saa(lp1061
(g977
NS'6'
S'D'
tp1062
a(dp1063
g7
I16
saa(lp1064
(g977
NS'6'
S'E'
tp1065
a(dp1066
g7
I40
saa(lp1067
(g977
NS'7'
S'A'
tp1068
a(dp1069
g7
I80
saa(lp1070
(g977
NS'7'
S'B'
tp1071
a(dp1072
g7
I128
saa(lp1073
(g977
NS'7'
S'C'
tp1074
a(dp1075
g7
I80
saa(lp1076
(g977
NS'7'
S'D'
tp1077
a(dp1078
g7
I32
saa(lp1079
(g977
NS'7'
S'E'
tp1080
a(dp1081
g7
I80
saa(lp1082
(g977
NS'8'
S'A'
tp1083
a(dp1084
g7
I160
saa(lp1085
(g977
NS'8'
S'B'
tp1086
a(dp1087
g7
I256
saa(lp1088
(g977
NS'8'
S'C'
tp1089
a(dp1090
g7
I160
saa(lp1091
(g977
NS'8'
S'D'
tp1092
a(dp1093
g7
I64
saa(lp1094
(g977
NS'8'
S'E'
tp1095
a(dp1096
g7
I160
saa(lp1097
(S'Lightweight Alloy'
p1098
S'Adder'
p1099
S'1'
S'I'
tp1100
a(dp1101
g7
I0
saa(lp1102
(g1098
S'Anaconda'
p1103
S'1'
S'I'
tp1104
a(dp1105
g7
I0
saa(lp1106
(g1098
S'Asp Explorer'
p1107
S'1'
S'I'
tp1108
a(dp1109
g7
I0
saa(lp1110
(g1098
S'Asp Scout'
p1111
S'1'
S'I'
tp1112
a(dp1113
g7
I0
saa(lp1114
(g1098
S'Beluga Liner'
p1115
S'1'
S'I'
tp1116
a(dp1117
g7
I0
saa(lp1118
(g1098
S'Cobra MkIII'
p1119
S'1'
S'I'
tp1120
a(dp1121
g7
I0
saa(lp1122
(g1098
S'Cobra MkIV'
p1123
S'1'
S'I'
tp1124
a(dp1125
g7
I0
saa(lp1126
(g1098
S'Diamondback Explorer'
p1127
S'1'
S'I'
tp1128
a(dp1129
g7
I0
saa(lp1130
(g1098
S'Diamondback Scout'
p1131
S'1'
S'I'
tp1132
a(dp1133
g7
I0
saa(lp1134
(g1098
S'Dolphin'
p1135
S'1'
S'I'
tp1136
a(dp1137
g7
I0
saa(lp1138
(g1098
S'Eagle'
p1139
S'1'
S'I'
tp1140
a(dp1141
g7
I0
saa(lp1142
(g1098
S'Federal Assault Ship'
p1143
S'1'
S'I'
tp1144
a(dp1145
g7
I0
saa(lp1146
(g1098
S'Federal Corvette'
p1147
S'1'
S'I'
tp1148
a(dp1149
g7
I0
saa(lp1150
(g1098
S'Federal Dropship'
p1151
S'1'
S'I'
tp1152
a(dp1153
g7
I0
saa(lp1154
(g1098
S'Federal Gunship'
p1155
S'1'
S'I'
tp1156
a(dp1157
g7
I0
saa(lp1158
(g1098
S'Fer-de-Lance'
p1159
S'1'
S'I'
tp1160
a(dp1161
g7
I0
saa(lp1162
(g1098
S'Hauler'
p1163
S'1'
S'I'
tp1164
a(dp1165
g7
I0
saa(lp1166
(g1098
S'Imperial Clipper'
p1167
S'1'
S'I'
tp1168
a(dp1169
g7
I0
saa(lp1170
(g1098
S'Imperial Courier'
p1171
S'1'
S'I'
tp1172
a(dp1173
g7
I0
saa(lp1174
(g1098
S'Imperial Cutter'
p1175
S'1'
S'I'
tp1176
a(dp1177
g7
I0
saa(lp1178
(g1098
S'Imperial Eagle'
p1179
S'1'
S'I'
tp1180
a(dp1181
g7
I0
saa(lp1182
(g1098
S'Keelback'
p1183
S'1'
S'I'
tp1184
a(dp1185
g7
I0
saa(lp1186
(g1098
S'Orca'
p1187
S'1'
S'I'
tp1188
a(dp1189
g7
I0
saa(lp1190
(g1098
S'Python'
p1191
S'1'
S'I'
tp1192
a(dp1193
g7
I0
saa(lp1194
(g1098
S'Sidewinder'
p1195
S'1'
S'I'
tp1196
a(dp1197
g7
I0
saa(lp1198
(g1098
S'Type-10 Defender'
p1199
S'1'
S'I'
tp1200
a(dp1201
g7
I0
saa(lp1202
(g1098
S'Type-6 Transporter'
p1203
S'1'
S'I'
tp1204
a(dp1205
g7
I0
saa(lp1206
(g1098
S'Type-7 Transporter'
p1207
S'1'
S'I'
tp1208
a(dp1209
g7
I0
saa(lp1210
(g1098
S'Type-9 Heavy'
p1211
S'1'
S'I'
tp1212
a(dp1213
g7
I0
saa(lp1214
(g1098
S'Viper MkIII'
p1215
S'1'
S'I'
tp1216
a(dp1217
g7
I0
saa(lp1218
(g1098
S'Viper MkIV'
p1219
S'1'
S'I'
tp1220
a(dp1221
g7
I0
saa(lp1222
(g1098
S'Vulture'
p1223
S'1'
S'I'
tp1224
a(dp1225
g7
I0
saa(lp1226
(S'Luxury Class Passenger Cabin'
p1227
NS'5'
S'B'
tp1228
a(dp1229
g7
I20
saa(lp1230
(g1227
NS'6'
S'B'
tp1231
a(dp1232
g7
I40
saa(lp1233
(S'Military Grade Composite'
p1234
g1099
S'1'
S'I'
tp1235
a(dp1236
g7
I5
saa(lp1237
(g1234
g1103
S'1'
S'I'
tp1238
a(dp1239
g7
I60
saa(lp1240
(g1234
g1107
S'1'
S'I'
tp1241
a(dp1242
g7
I42
saa(lp1243
(g1234
g1111
S'1'
S'I'
tp1244
a(dp1245
g7
I42
saa(lp1246
(g1234
g1115
S'1'
S'I'
tp1247
a(dp1248
g7
I165
saa(lp1249
(g1234
g1119
S'1'
S'I'
tp1250
a(dp1251
g7
I27
saa(lp1252
(g1234
g1123
S'1'
S'I'
tp1253
a(dp1254
g7
I27
saa(lp1255
(g1234
g1127
S'1'
S'I'
tp1256
a(dp1257
g7
I47
saa(lp1258
(g1234
g1131
S'1'
S'I'
tp1259
a(dp1260
g7
I26
saa(lp1261
(g1234
g1135
S'1'
S'I'
tp1262
a(dp1263
g7
I63
saa(lp1264
(g1234
g1139
S'1'
S'I'
tp1265
a(dp1266
g7
I8
saa(lp1267
(g1234
g1143
S'1'
S'I'
tp1268
a(dp1269
g7
I87
saa(lp1270
(g1234
g1147
S'1'
S'I'
tp1271
a(dp1272
g7
I60
saa(lp1273
(g1234
g1151
S'1'
S'I'
tp1274
a(dp1275
g7
I87
saa(lp1276
(g1234
g1155
S'1'
S'I'
tp1277
a(dp1278
g7
I87
saa(lp1279
(g1234
g1159
S'1'
S'I'
tp1280
a(dp1281
g7
I38
saa(lp1282
(g1234
g1163
S'1'
S'I'
tp1283
a(dp1284
g7
I2
saa(lp1285
(g1234
g1167
S'1'
S'I'
tp1286
a(dp1287
g7
I60
saa(lp1288
(g1234
g1171
S'1'
S'I'
tp1289
a(dp1290
g7
I8
saa(lp1291
(g1234
g1175
S'1'
S'I'
tp1292
a(dp1293
g7
I60
saa(lp1294
(g1234
g1179
S'1'
S'I'
tp1295
a(dp1296
g7
I8
saa(lp1297
(g1234
g1183
S'1'
S'I'
tp1298
a(dp1299
g7
I23
saa(lp1300
(g1234
g1187
S'1'
S'I'
tp1301
a(dp1302
g7
I87
saa(lp1303
(g1234
g1191
S'1'
S'I'
tp1304
a(dp1305
g7
I53
saa(lp1306
(g1234
g1195
S'1'
S'I'
tp1307
a(dp1308
g7
I4
saa(lp1309
(g1234
g1199
S'1'
S'I'
tp1310
a(dp1311
g7
I150
saa(lp1312
(g1234
g1203
S'1'
S'I'
tp1313
a(dp1314
g7
I23
saa(lp1315
(g1234
g1207
S'1'
S'I'
tp1316
a(dp1317
g7
I63
saa(lp1318
(g1234
g1211
S'1'
S'I'
tp1319
a(dp1320
g7
I150
saa(lp1321
(g1234
g1215
S'1'
S'I'
tp1322
a(dp1323
g7
I9
saa(lp1324
(g1234
g1219
S'1'
S'I'
tp1325
a(dp1326
g7
I9
saa(lp1327
(g1234
g1223
S'1'
S'I'
tp1328
a(dp1329
g7
I35
saa(lp1330
(S'Mine Launcher'
p1331
NS'1'
S'I'
tp1332
a(dp1333
g7
I2
saa(lp1334
(g1331
NS'2'
S'I'
tp1335
a(dp1336
g7
I4
saa(lp1337
(S'Mining Lance Beam Laser'
p1338
NS'1'
S'D'
tp1339
a(dp1340
g7
I2
saa(lp1341
(S'Mining Laser'
p1342
NS'1'
S'D'
tp1343
a(dp1344
g7
I2
saa(lp1345
(g1342
NS'2'
S'D'
tp1346
a(dp1347
g7
I2
saa(lp1348
(S'Mirrored Surface Composite'
p1349
g1099
S'1'
S'I'
tp1350
a(dp1351
g7
I5
saa(lp1352
(g1349
g1103
S'1'
S'I'
tp1353
a(dp1354
g7
I60
saa(lp1355
(g1349
g1107
S'1'
S'I'
tp1356
a(dp1357
g7
I42
saa(lp1358
(g1349
g1111
S'1'
S'I'
tp1359
a(dp1360
g7
I42
saa(lp1361
(g1349
g1115
S'1'
S'I'
tp1362
a(dp1363
g7
I165
saa(lp1364
(g1349
g1119
S'1'
S'I'
tp1365
a(dp1366
g7
I27
saa(lp1367
(g1349
g1123
S'1'
S'I'
tp1368
a(dp1369
g7
I27
saa(lp1370
(g1349
g1127
S'1'
S'I'
tp1371
a(dp1372
g7
I26
saa(lp1373
(g1349
g1131
S'1'
S'I'
tp1374
a(dp1375
g7
I26
saa(lp1376
(g1349
g1135
S'1'
S'I'
tp1377
a(dp1378
g7
I63
saa(lp1379
(g1349
g1139
S'1'
S'I'
tp1380
a(dp1381
g7
I8
saa(lp1382
(g1349
g1143
S'1'
S'I'
tp1383
a(dp1384
g7
I87
saa(lp1385
(g1349
g1147
S'1'
S'I'
tp1386
a(dp1387
g7
I60
saa(lp1388
(g1349
g1151
S'1'
S'I'
tp1389
a(dp1390
g7
I87
saa(lp1391
(g1349
g1155
S'1'
S'I'
tp1392
a(dp1393
g7
I87
saa(lp1394
(g1349
g1159
S'1'
S'I'
tp1395
a(dp1396
g7
I38
saa(lp1397
(g1349
g1163
S'1'
S'I'
tp1398
a(dp1399
g7
I2
saa(lp1400
(g1349
g1167
S'1'
S'I'
tp1401
a(dp1402
g7
I60
saa(lp1403
(g1349
g1171
S'1'
S'I'
tp1404
a(dp1405
g7
I8
saa(lp1406
(g1349
g1175
S'1'
S'I'
tp1407
a(dp1408
g7
I60
saa(lp1409
(g1349
g1179
S'1'
S'I'
tp1410
a(dp1411
g7
I8
saa(lp1412
(g1349
g1183
S'1'
S'I'
tp1413
a(dp1414
g7
I23
saa(lp1415
(g1349
g1187
S'1'
S'I'
tp1416
a(dp1417
g7
I87
saa(lp1418
(g1349
g1191
S'1'
S'I'
tp1419
a(dp1420
g7
I53
saa(lp1421
(g1349
g1195
S'1'
S'I'
tp1422
a(dp1423
g7
I4
saa(lp1424
(g1349
g1199
S'1'
S'I'
tp1425
a(dp1426
g7
I150
saa(lp1427
(g1349
g1203
S'1'
S'I'
tp1428
a(dp1429
g7
I23
saa(lp1430
(g1349
g1207
S'1'
S'I'
tp1431
a(dp1432
g7
I63
saa(lp1433
(g1349
g1211
S'1'
S'I'
tp1434
a(dp1435
g7
I150
saa(lp1436
(g1349
g1215
S'1'
S'I'
tp1437
a(dp1438
g7
I9
saa(lp1439
(g1349
g1219
S'1'
S'I'
tp1440
a(dp1441
g7
I9
saa(lp1442
(g1349
g1223
S'1'
S'I'
tp1443
a(dp1444
g7
I35
saa(lp1445
(S'Missile Rack'
p1446
NS'1'
S'B'
tp1447
a(dp1448
g7
I2
saa(lp1449
(g1446
NS'2'
S'B'
tp1450
a(dp1451
g7
I4
saa(lp1452
(S'Module Reinforcement Package'
p1453
NS'1'
S'D'
tp1454
a(dp1455
g7
I1
saa(lp1456
(g1453
NS'1'
S'E'
tp1457
a(dp1458
g7
I2
saa(lp1459
(g1453
NS'2'
S'D'
tp1460
a(dp1461
g7
I2
saa(lp1462
(g1453
NS'2'
S'E'
tp1463
a(dp1464
g7
I4
saa(lp1465
(g1453
NS'3'
S'D'
tp1466
a(dp1467
g7
I4
saa(lp1468
(g1453
NS'3'
S'E'
tp1469
a(dp1470
g7
I8
saa(lp1471
(g1453
NS'4'
S'D'
tp1472
a(dp1473
g7
I8
saa(lp1474
(g1453
NS'4'
S'E'
tp1475
a(dp1476
g7
I16
saa(lp1477
(g1453
NS'5'
S'D'
tp1478
a(dp1479
g7
I16
saa(lp1480
(g1453
NS'5'
S'E'
tp1481
a(dp1482
g7
I32
saa(lp1483
(S'Multi-Cannon'
p1484
NS'1'
S'F'
tp1485
a(dp1486
g7
I2
saa(lp1487
(g1484
NS'1'
S'G'
tp1488
a(dp1489
g7
I2
saa(lp1490
(g1484
NS'2'
S'E'
tp1491
a(dp1492
g7
I4
saa(lp1493
(g1484
NS'2'
S'F'
tp1494
a(dp1495
g7
I4
saa(lp1496
(g1484
NS'3'
S'C'
tp1497
a(dp1498
g7
I8
saa(lp1499
(g1484
NS'4'
S'A'
tp1500
a(dp1501
g7
I16
saa(lp1502
(S'Pacifier Frag-Cannon'
p1503
NS'3'
S'C'
tp1504
a(dp1505
g7
I8
saa(lp1506
(S'Pack-Hound Missile Rack'
p1507
NS'2'
S'B'
tp1508
a(dp1509
g7
I4
saa(lp1510
(S'Planetary Approach Suite'
p1511
NS'1'
S'I'
tp1512
a(dp1513
g7
I0
saa(lp1514
(S'Planetary Vehicle Hangar'
p1515
NS'2'
S'G'
tp1516
a(dp1517
g7
I6
saa(lp1518
(g1515
NS'2'
S'H'
tp1519
a(dp1520
g7
I12
saa(lp1521
(g1515
NS'4'
S'G'
tp1522
a(dp1523
g7
I10
saa(lp1524
(g1515
NS'4'
S'H'
tp1525
a(dp1526
g7
I20
saa(lp1527
(g1515
NS'6'
S'G'
tp1528
a(dp1529
g7
I17
saa(lp1530
(g1515
NS'6'
S'H'
tp1531
a(dp1532
g7
I34
saa(lp1533
(S'Plasma Accelerator'
p1534
NS'2'
S'C'
tp1535
a(dp1536
g7
I4
saa(lp1537
(g1534
NS'3'
S'B'
tp1538
a(dp1539
g7
I8
saa(lp1540
(g1534
NS'4'
S'A'
tp1541
a(dp1542
g7
I16
saa(lp1543
(S'Point Defence'
p1544
NS'0'
S'I'
tp1545
a(dp1546
g7
F0.5
saa(lp1547
(S'Power Distributor'
p1548
NS'1'
S'A'
tp1549
a(dp1550
g7
F1.3
saa(lp1551
(g1548
NS'1'
S'B'
tp1552
a(dp1553
g7
I2
saa(lp1554
(g1548
NS'1'
S'C'
tp1555
a(dp1556
g7
F1.3
saa(lp1557
(g1548
NS'1'
S'D'
tp1558
a(dp1559
g7
F0.5
saa(lp1560
(g1548
NS'1'
S'E'
tp1561
a(dp1562
g7
F1.3
saa(lp1563
(g1548
NS'2'
S'A'
tp1564
a(dp1565
g7
F2.5
saa(lp1566
(g1548
NS'2'
S'B'
tp1567
a(dp1568
g7
I4
saa(lp1569
(g1548
NS'2'
S'C'
tp1570
a(dp1571
g7
F2.5
saa(lp1572
(g1548
NS'2'
S'D'
tp1573
a(dp1574
g7
I1
saa(lp1575
(g1548
NS'2'
S'E'
tp1576
a(dp1577
g7
F2.5
saa(lp1578
(g1548
NS'3'
S'A'
tp1579
a(dp1580
g7
I5
saa(lp1581
(g1548
NS'3'
S'B'
tp1582
a(dp1583
g7
I8
saa(lp1584
(g1548
NS'3'
S'C'
tp1585
a(dp1586
g7
I5
saa(lp1587
(g1548
NS'3'
S'D'
tp1588
a(dp1589
g7
I2
saa(lp1590
(g1548
NS'3'
S'E'
tp1591
a(dp1592
g7
I5
saa(lp1593
(g1548
NS'4'
S'A'
tp1594
a(dp1595
g7
I10
saa(lp1596
(g1548
NS'4'
S'B'
tp1597
a(dp1598
g7
I16
saa(lp1599
(g1548
NS'4'
S'C'
tp1600
a(dp1601
g7
I10
saa(lp1602
(g1548
NS'4'
S'D'
tp1603
a(dp1604
g7
I4
saa(lp1605
(g1548
NS'4'
S'E'
tp1606
a(dp1607
g7
I10
saa(lp1608
(g1548
NS'5'
S'A'
tp1609
a(dp1610
g7
I20
saa(lp1611
(g1548
NS'5'
S'B'
tp1612
a(dp1613
g7
I32
saa(lp1614
(g1548
NS'5'
S'C'
tp1615
a(dp1616
g7
I20
saa(lp1617
(g1548
NS'5'
S'D'
tp1618
a(dp1619
g7
I8
saa(lp1620
(g1548
NS'5'
S'E'
tp1621
a(dp1622
g7
I20
saa(lp1623
(g1548
NS'6'
S'A'
tp1624
a(dp1625
g7
I40
saa(lp1626
(g1548
NS'6'
S'B'
tp1627
a(dp1628
g7
I64
saa(lp1629
(g1548
NS'6'
S'C'
tp1630
a(dp1631
g7
I40
saa(lp1632
(g1548
NS'6'
S'D'
tp1633
a(dp1634
g7
I16
saa(lp1635
(g1548
NS'6'
S'E'
tp1636
a(dp1637
g7
I40
saa(lp1638
(g1548
NS'7'
S'A'
tp1639
a(dp1640
g7
I80
saa(lp1641
(g1548
NS'7'
S'B'
tp1642
a(dp1643
g7
I128
saa(lp1644
(g1548
NS'7'
S'C'
tp1645
a(dp1646
g7
I80
saa(lp1647
(g1548
NS'7'
S'D'
tp1648
a(dp1649
g7
I32
saa(lp1650
(g1548
NS'7'
S'E'
tp1651
a(dp1652
g7
I80
saa(lp1653
(g1548
NS'8'
S'A'
tp1654
a(dp1655
g7
I160
saa(lp1656
(g1548
NS'8'
S'B'
tp1657
a(dp1658
g7
I256
saa(lp1659
(g1548
NS'8'
S'C'
tp1660
a(dp1661
g7
I160
saa(lp1662
(g1548
NS'8'
S'D'
tp1663
a(dp1664
g7
I64
saa(lp1665
(g1548
NS'8'
S'E'
tp1666
a(dp1667
g7
I160
saa(lp1668
(S'Power Plant'
p1669
NS'2'
S'A'
tp1670
a(dp1671
g7
F1.3
saa(lp1672
(g1669
NS'2'
S'B'
tp1673
a(dp1674
g7
I2
saa(lp1675
(g1669
NS'2'
S'C'
tp1676
a(dp1677
g7
F1.3
saa(lp1678
(g1669
NS'2'
S'D'
tp1679
a(dp1680
g7
I1
saa(lp1681
(g1669
NS'2'
S'E'
tp1682
a(dp1683
g7
F2.5
saa(lp1684
(g1669
NS'3'
S'A'
tp1685
a(dp1686
g7
F2.5
saa(lp1687
(g1669
NS'3'
S'B'
tp1688
a(dp1689
g7
I4
saa(lp1690
(g1669
NS'3'
S'C'
tp1691
a(dp1692
g7
F2.5
saa(lp1693
(g1669
NS'3'
S'D'
tp1694
a(dp1695
g7
I2
saa(lp1696
(g1669
NS'3'
S'E'
tp1697
a(dp1698
g7
I5
saa(lp1699
(g1669
NS'4'
S'A'
tp1700
a(dp1701
g7
I5
saa(lp1702
(g1669
NS'4'
S'B'
tp1703
a(dp1704
g7
I8
saa(lp1705
(g1669
NS'4'
S'C'
tp1706
a(dp1707
g7
I5
saa(lp1708
(g1669
NS'4'
S'D'
tp1709
a(dp1710
g7
I4
saa(lp1711
(g1669
NS'4'
S'E'
tp1712
a(dp1713
g7
I10
saa(lp1714
(g1669
NS'5'
S'A'
tp1715
a(dp1716
g7
I10
saa(lp1717
(g1669
NS'5'
S'B'
tp1718
a(dp1719
g7
I16
saa(lp1720
(g1669
NS'5'
S'C'
tp1721
a(dp1722
g7
I10
saa(lp1723
(g1669
NS'5'
S'D'
tp1724
a(dp1725
g7
I8
saa(lp1726
(g1669
NS'5'
S'E'
tp1727
a(dp1728
g7
I20
saa(lp1729
(g1669
NS'6'
S'A'
tp1730
a(dp1731
g7
I20
saa(lp1732
(g1669
NS'6'
S'B'
tp1733
a(dp1734
g7
I32
saa(lp1735
(g1669
NS'6'
S'C'
tp1736
a(dp1737
g7
I20
saa(lp1738
(g1669
NS'6'
S'D'
tp1739
a(dp1740
g7
I16
saa(lp1741
(g1669
NS'6'
S'E'
tp1742
a(dp1743
g7
I40
saa(lp1744
(g1669
NS'7'
S'A'
tp1745
a(dp1746
g7
I40
saa(lp1747
(g1669
NS'7'
S'B'
tp1748
a(dp1749
g7
I64
saa(lp1750
(g1669
NS'7'
S'C'
tp1751
a(dp1752
g7
I40
saa(lp1753
(g1669
NS'7'
S'D'
tp1754
a(dp1755
g7
I32
saa(lp1756
(g1669
NS'7'
S'E'
tp1757
a(dp1758
g7
I80
saa(lp1759
(g1669
NS'8'
S'A'
tp1760
a(dp1761
g7
I80
saa(lp1762
(g1669
NS'8'
S'B'
tp1763
a(dp1764
g7
I128
saa(lp1765
(g1669
NS'8'
S'C'
tp1766
a(dp1767
g7
I80
saa(lp1768
(g1669
NS'8'
S'D'
tp1769
a(dp1770
g7
I64
saa(lp1771
(g1669
NS'8'
S'E'
tp1772
a(dp1773
g7
I160
saa(lp1774
(S'Prismatic Shield Generator'
p1775
NS'1'
S'A'
tp1776
a(dp1777
g7
F2.5
saa(lp1778
(g1775
NS'2'
S'A'
tp1779
a(dp1780
g7
I5
saa(lp1781
(g1775
NS'3'
S'A'
tp1782
a(dp1783
g7
I10
saa(lp1784
(g1775
NS'4'
S'A'
tp1785
a(dp1786
g7
I20
saa(lp1787
(g1775
NS'5'
S'A'
tp1788
a(dp1789
g7
I40
saa(lp1790
(g1775
NS'6'
S'A'
tp1791
a(dp1792
g7
I80
saa(lp1793
(g1775
NS'7'
S'A'
tp1794
a(dp1795
g7
I160
saa(lp1796
(g1775
NS'8'
S'A'
tp1797
a(dp1798
g7
I320
saa(lp1799
(S'Prospector Limpet Controller'
p1800
NS'1'
S'A'
tp1801
a(dp1802
g7
F1.3
saa(lp1803
(g1800
NS'1'
S'B'
tp1804
a(dp1805
g7
I2
saa(lp1806
(g1800
NS'1'
S'C'
tp1807
a(dp1808
g7
F1.3
saa(lp1809
(g1800
NS'1'
S'D'
tp1810
a(dp1811
g7
F0.5
saa(lp1812
(g1800
NS'1'
S'E'
tp1813
a(dp1814
g7
F1.3
saa(lp1815
(g1800
NS'3'
S'A'
tp1816
a(dp1817
g7
I5
saa(lp1818
(g1800
NS'3'
S'B'
tp1819
a(dp1820
g7
I8
saa(lp1821
(g1800
NS'3'
S'C'
tp1822
a(dp1823
g7
I5
saa(lp1824
(g1800
NS'3'
S'D'
tp1825
a(dp1826
g7
I2
saa(lp1827
(g1800
NS'3'
S'E'
tp1828
a(dp1829
g7
I5
saa(lp1830
(g1800
NS'5'
S'A'
tp1831
a(dp1832
g7
I20
saa(lp1833
(g1800
NS'5'
S'B'
tp1834
a(dp1835
g7
I32
saa(lp1836
(g1800
NS'5'
S'C'
tp1837
a(dp1838
g7
I20
saa(lp1839
(g1800
NS'5'
S'D'
tp1840
a(dp1841
g7
I8
saa(lp1842
(g1800
NS'5'
S'E'
tp1843
a(dp1844
g7
I20
saa(lp1845
(g1800
NS'7'
S'A'
tp1846
a(dp1847
g7
I80
saa(lp1848
(g1800
NS'7'
S'B'
tp1849
a(dp1850
g7
I128
saa(lp1851
(g1800
NS'7'
S'C'
tp1852
a(dp1853
g7
I80
saa(lp1854
(g1800
NS'7'
S'D'
tp1855
a(dp1856
g7
I32
saa(lp1857
(g1800
NS'7'
S'E'
tp1858
a(dp1859
g7
I80
saa(lp1860
(S'Pulse Disruptor Laser'
p1861
NS'2'
S'E'
tp1862
a(dp1863
g7
I4
saa(lp1864
(S'Pulse Laser'
p1865
NS'1'
S'F'
tp1866
a(dp1867
g7
I2
saa(lp1868
(g1865
NS'1'
S'G'
tp1869
a(dp1870
g7
I2
saa(lp1871
(g1865
NS'2'
S'E'
tp1872
a(dp1873
g7
I4
saa(lp1874
(g1865
NS'2'
S'F'
tp1875
a(dp1876
g7
I4
saa(lp1877
(g1865
NS'3'
S'D'
tp1878
a(dp1879
g7
I8
saa(lp1880
(g1865
NS'3'
S'E'
tp1881
a(dp1882
g7
I8
saa(lp1883
(g1865
NS'3'
S'F'
tp1884
a(dp1885
g7
I8
saa(lp1886
(g1865
NS'4'
S'A'
tp1887
a(dp1888
g7
I16
saa(lp1889
(S'Rail Gun'
p1890
NS'1'
S'D'
tp1891
a(dp1892
g7
I2
saa(lp1893
(g1890
NS'2'
S'B'
tp1894
a(dp1895
g7
I4
saa(lp1896
(S'Reactive Surface Composite'
p1897
g1099
S'1'
S'I'
tp1898
a(dp1899
g7
I5
saa(lp1900
(g1897
g1103
S'1'
S'I'
tp1901
a(dp1902
g7
I60
saa(lp1903
(g1897
g1107
S'1'
S'I'
tp1904
a(dp1905
g7
I42
saa(lp1906
(g1897
g1111
S'1'
S'I'
tp1907
a(dp1908
g7
I42
saa(lp1909
(g1897
g1115
S'1'
S'I'
tp1910
a(dp1911
g7
I165
saa(lp1912
(g1897
g1119
S'1'
S'I'
tp1913
a(dp1914
g7
I27
saa(lp1915
(g1897
g1123
S'1'
S'I'
tp1916
a(dp1917
g7
I27
saa(lp1918
(g1897
g1127
S'1'
S'I'
tp1919
a(dp1920
g7
I47
saa(lp1921
(g1897
g1131
S'1'
S'I'
tp1922
a(dp1923
g7
I26
saa(lp1924
(g1897
g1135
S'1'
S'I'
tp1925
a(dp1926
g7
I63
saa(lp1927
(g1897
g1139
S'1'
S'I'
tp1928
a(dp1929
g7
I8
saa(lp1930
(g1897
g1143
S'1'
S'I'
tp1931
a(dp1932
g7
I87
saa(lp1933
(g1897
g1147
S'1'
S'I'
tp1934
a(dp1935
g7
I60
saa(lp1936
(g1897
g1151
S'1'
S'I'
tp1937
a(dp1938
g7
I87
saa(lp1939
(g1897
g1155
S'1'
S'I'
tp1940
a(dp1941
g7
I87
saa(lp1942
(g1897
g1159
S'1'
S'I'
tp1943
a(dp1944
g7
I38
saa(lp1945
(g1897
g1163
S'1'
S'I'
tp1946
a(dp1947
g7
I2
saa(lp1948
(g1897
g1167
S'1'
S'I'
tp1949
a(dp1950
g7
I60
saa(lp1951
(g1897
g1171
S'1'
S'I'
tp1952
a(dp1953
g7
I8
saa(lp1954
(g1897
g1175
S'1'
S'I'
tp1955
a(dp1956
g7
I60
saa(lp1957
(g1897
g1179
S'1'
S'I'
tp1958
a(dp1959
g7
I8
saa(lp1960
(g1897
g1183
S'1'
S'I'
tp1961
a(dp1962
g7
I23
saa(lp1963
(g1897
g1187
S'1'
S'I'
tp1964
a(dp1965
g7
I87
saa(lp1966
(g1897
g1191
S'1'
S'I'
tp1967
a(dp1968
g7
I53
saa(lp1969
(g1897
g1195
S'1'
S'I'
tp1970
a(dp1971
g7
I4
saa(lp1972
(g1897
g1199
S'1'
S'I'
tp1973
a(dp1974
g7
I150
saa(lp1975
(g1897
g1203
S'1'
S'I'
tp1976
a(dp1977
g7
I23
saa(lp1978
(g1897
g1207
S'1'
S'I'
tp1979
a(dp1980
g7
I63
saa(lp1981
(g1897
g1211
S'1'
S'I'
tp1982
a(dp1983
g7
I150
saa(lp1984
(g1897
g1215
S'1'
S'I'
tp1985
a(dp1986
g7
I9
saa(lp1987
(g1897
g1219
S'1'
S'I'
tp1988
a(dp1989
g7
I9
saa(lp1990
(g1897
g1223
S'1'
S'I'
tp1991
a(dp1992
g7
I35
saa(lp1993
(S'Refinery'
p1994
NS'1'
S'A'
tp1995
a(dp1996
g7
I0
saa(lp1997
(g1994
NS'1'
S'B'
tp1998
a(dp1999
g7
I0
saa(lp2000
(g1994
NS'1'
S'C'
tp2001
a(dp2002
g7
I0
saa(lp2003
(g1994
NS'1'
S'D'
tp2004
a(dp2005
g7
I0
saa(lp2006
(g1994
NS'1'
S'E'
tp2007
a(dp2008
g7
I0
saa(lp2009
(g1994
NS'2'
S'A'
tp2010
a(dp2011
g7
I0
saa(lp2012
(g1994
NS'2'
S'B'
tp2013
a(dp2014
g7
I0
saa(lp2015
(g1994
NS'2'
S'C'
tp2016
a(dp2017
g7
I0
saa(lp2018
(g1994
NS'2'
S'D'
tp2019
a(dp2020
g7
I0
saa(lp2021
(g1994
NS'2'
S'E'
tp2022
a(dp2023
g7
I0
saa(lp2024
(g1994
NS'3'
S'A'
tp2025
a(dp2026
g7
I0
saa(lp2027
(g1994
NS'3'
S'B'
tp2028
a(dp2029
g7
I0
saa(lp2030
(g1994
NS'3'
S'C'
tp2031
a(dp2032
g7
I0
saa(lp2033
(g1994
NS'3'
S'D'
tp2034
a(dp2035
g7
I0
saa(lp2036
(g1994
NS'3'
S'E'
tp2037
a(dp2038
g7
I0
saa(lp2039
(g1994
NS'4'
S'A'
tp2040
a(dp2041
g7
I0
saa(lp2042
(g1994
NS'4'
S'B'
tp2043
a(dp2044
g7
I0
saa(lp2045
(g1994
NS'4'
S'C'
tp2046
a(dp2047
g7
I0
saa(lp2048
(g1994
NS'4'
S'D'
tp2049
a(dp2050
g7
I0
saa(lp2051
(g1994
NS'4'
S'E'
tp2052
a(dp2053
g7
I0
saa(lp2054
(S'Reinforced Alloy'
p2055
g1099
S'1'
S'I'
tp2056
a(dp2057
g7
I3
saa(lp2058
(g2055
g1103
S'1'
S'I'
tp2059
a(dp2060
g7
I30
saa(lp2061
(g2055
g1107
S'1'
S'I'
tp2062
a(dp2063
g7
I21
saa(lp2064
(g2055
g1111
S'1'
S'I'
tp2065
a(dp2066
g7
I21
saa(lp2067
(g2055
g1115
S'1'
S'I'
tp2068
a(dp2069
g7
I83
saa(lp2070
(g2055
g1119
S'1'
S'I'
tp2071
a(dp2072
g7
I14
saa(lp2073
(g2055
g1123
S'1'
S'I'
tp2074
a(dp2075
g7
I14
saa(lp2076
(g2055
g1127
S'1'
S'I'
tp2077
a(dp2078
g7
I23
saa(lp2079
(g2055
g1131
S'1'
S'I'
tp2080
a(dp2081
g7
I13
saa(lp2082
(g2055
g1135
S'1'
S'I'
tp2083
a(dp2084
g7
I32
saa(lp2085
(g2055
g1139
S'1'
S'I'
tp2086
a(dp2087
g7
I4
saa(lp2088
(g2055
g1143
S'1'
S'I'
tp2089
a(dp2090
g7
I44
saa(lp2091
(g2055
g1147
S'1'
S'I'
tp2092
a(dp2093
g7
I30
saa(lp2094
(g2055
g1151
S'1'
S'I'
tp2095
a(dp2096
g7
I44
saa(lp2097
(g2055
g1155
S'1'
S'I'
tp2098
a(dp2099
g7
I44
saa(lp2100
(g2055
g1159
S'1'
S'I'
tp2101
a(dp2102
g7
I19
saa(lp2103
(g2055
g1163
S'1'
S'I'
tp2104
a(dp2105
g7
I1
saa(lp2106
(g2055
g1167
S'1'
S'I'
tp2107
a(dp2108
g7
I30
saa(lp2109
(g2055
g1171
S'1'
S'I'
tp2110
a(dp2111
g7
I4
saa(lp2112
(g2055
g1175
S'1'
S'I'
tp2113
a(dp2114
g7
I30
saa(lp2115
(g2055
g1179
S'1'
S'I'
tp2116
a(dp2117
g7
I4
saa(lp2118
(g2055
g1183
S'1'
S'I'
tp2119
a(dp2120
g7
I12
saa(lp2121
(g2055
g1187
S'1'
S'I'
tp2122
a(dp2123
g7
I21
saa(lp2124
(g2055
g1191
S'1'
S'I'
tp2125
a(dp2126
g7
I26
saa(lp2127
(g2055
g1195
S'1'
S'I'
tp2128
a(dp2129
g7
I2
saa(lp2130
(g2055
g1199
S'1'
S'I'
tp2131
a(dp2132
g7
I75
saa(lp2133
(g2055
g1203
S'1'
S'I'
tp2134
a(dp2135
g7
I12
saa(lp2136
(g2055
g1207
S'1'
S'I'
tp2137
a(dp2138
g7
I32
saa(lp2139
(g2055
g1211
S'1'
S'I'
tp2140
a(dp2141
g7
I75
saa(lp2142
(g2055
g1215
S'1'
S'I'
tp2143
a(dp2144
g7
I5
saa(lp2145
(g2055
g1219
S'1'
S'I'
tp2146
a(dp2147
g7
I5
saa(lp2148
(g2055
g1223
S'1'
S'I'
tp2149
a(dp2150
g7
I17
saa(lp2151
(S'Remote Release Flak Launcher'
p2152
NS'2'
S'B'
tp2153
a(dp2154
g7
I4
saa(lp2155
(S'Repair Limpet Controller'
p2156
NS'1'
S'A'
tp2157
a(dp2158
g7
F1.3
saa(lp2159
(g2156
NS'1'
S'B'
tp2160
a(dp2161
g7
I2
saa(lp2162
(g2156
NS'1'
S'C'
tp2163
a(dp2164
g7
F1.3
saa(lp2165
(g2156
NS'1'
S'D'
tp2166
a(dp2167
g7
F0.5
saa(lp2168
(g2156
NS'1'
S'E'
tp2169
a(dp2170
g7
F1.3
saa(lp2171
(g2156
NS'3'
S'A'
tp2172
a(dp2173
g7
I5
saa(lp2174
(g2156
NS'3'
S'B'
tp2175
a(dp2176
g7
I8
saa(lp2177
(g2156
NS'3'
S'C'
tp2178
a(dp2179
g7
I5
saa(lp2180
(g2156
NS'3'
S'D'
tp2181
a(dp2182
g7
I2
saa(lp2183
(g2156
NS'3'
S'E'
tp2184
a(dp2185
g7
I5
saa(lp2186
(g2156
NS'5'
S'A'
tp2187
a(dp2188
g7
I20
saa(lp2189
(g2156
NS'5'
S'B'
tp2190
a(dp2191
g7
I32
saa(lp2192
(g2156
NS'5'
S'C'
tp2193
a(dp2194
g7
I20
saa(lp2195
(g2156
NS'5'
S'D'
tp2196
a(dp2197
g7
I8
saa(lp2198
(g2156
NS'5'
S'E'
tp2199
a(dp2200
g7
I20
saa(lp2201
(g2156
NS'7'
S'A'
tp2202
a(dp2203
g7
I80
saa(lp2204
(g2156
NS'7'
S'B'
tp2205
a(dp2206
g7
I128
saa(lp2207
(g2156
NS'7'
S'C'
tp2208
a(dp2209
g7
I80
saa(lp2210
(g2156
NS'7'
S'D'
tp2211
a(dp2212
g7
I32
saa(lp2213
(g2156
NS'7'
S'E'
tp2214
a(dp2215
g7
I80
saa(lp2216
(S'Retributor Beam Laser'
p2217
NS'1'
S'E'
tp2218
a(dp2219
g7
I2
saa(lp2220
(S'Rocket Propelled FSD Disruptor'
p2221
NS'2'
S'B'
tp2222
a(dp2223
g7
I4
saa(lp2224
(S'Sensors'
p2225
NS'1'
S'A'
tp2226
a(dp2227
g7
F1.3
saa(lp2228
(g2225
NS'1'
S'B'
tp2229
a(dp2230
g7
I2
saa(lp2231
(g2225
NS'1'
S'C'
tp2232
a(dp2233
g7
F1.3
saa(lp2234
(g2225
NS'1'
S'D'
tp2235
a(dp2236
g7
F0.5
saa(lp2237
(g2225
NS'1'
S'E'
tp2238
a(dp2239
g7
F1.3
saa(lp2240
(g2225
NS'2'
S'A'
tp2241
a(dp2242
g7
F2.5
saa(lp2243
(g2225
NS'2'
S'B'
tp2244
a(dp2245
g7
I4
saa(lp2246
(g2225
NS'2'
S'C'
tp2247
a(dp2248
g7
F2.5
saa(lp2249
(g2225
NS'2'
S'D'
tp2250
a(dp2251
g7
I1
saa(lp2252
(g2225
NS'2'
S'E'
tp2253
a(dp2254
g7
F2.5
saa(lp2255
(g2225
NS'3'
S'A'
tp2256
a(dp2257
g7
I5
saa(lp2258
(g2225
NS'3'
S'B'
tp2259
a(dp2260
g7
I8
saa(lp2261
(g2225
NS'3'
S'C'
tp2262
a(dp2263
g7
I5
saa(lp2264
(g2225
NS'3'
S'D'
tp2265
a(dp2266
g7
I2
saa(lp2267
(g2225
NS'3'
S'E'
tp2268
a(dp2269
g7
I5
saa(lp2270
(g2225
NS'4'
S'A'
tp2271
a(dp2272
g7
I10
saa(lp2273
(g2225
NS'4'
S'B'
tp2274
a(dp2275
g7
I16
saa(lp2276
(g2225
NS'4'
S'C'
tp2277
a(dp2278
g7
I10
saa(lp2279
(g2225
NS'4'
S'D'
tp2280
a(dp2281
g7
I4
saa(lp2282
(g2225
NS'4'
S'E'
tp2283
a(dp2284
g7
I10
saa(lp2285
(g2225
NS'5'
S'A'
tp2286
a(dp2287
g7
I20
saa(lp2288
(g2225
NS'5'
S'B'
tp2289
a(dp2290
g7
I32
saa(lp2291
(g2225
NS'5'
S'C'
tp2292
a(dp2293
g7
I20
saa(lp2294
(g2225
NS'5'
S'D'
tp2295
a(dp2296
g7
I8
saa(lp2297
(g2225
NS'5'
S'E'
tp2298
a(dp2299
g7
I20
saa(lp2300
(g2225
NS'6'
S'A'
tp2301
a(dp2302
g7
I40
saa(lp2303
(g2225
NS'6'
S'B'
tp2304
a(dp2305
g7
I64
saa(lp2306
(g2225
NS'6'
S'C'
tp2307
a(dp2308
g7
I40
saa(lp2309
(g2225
NS'6'
S'D'
tp2310
a(dp2311
g7
I16
saa(lp2312
(g2225
NS'6'
S'E'
tp2313
a(dp2314
g7
I40
saa(lp2315
(g2225
NS'7'
S'A'
tp2316
a(dp2317
g7
I80
saa(lp2318
(g2225
NS'7'
S'B'
tp2319
a(dp2320
g7
I128
saa(lp2321
(g2225
NS'7'
S'C'
tp2322
a(dp2323
g7
I80
saa(lp2324
(g2225
NS'7'
S'D'
tp2325
a(dp2326
g7
I32
saa(lp2327
(g2225
NS'7'
S'E'
tp2328
a(dp2329
g7
I80
saa(lp2330
(g2225
NS'8'
S'A'
tp2331
a(dp2332
g7
I160
saa(lp2333
(g2225
NS'8'
S'B'
tp2334
a(dp2335
g7
I256
saa(lp2336
(g2225
NS'8'
S'C'
tp2337
a(dp2338
g7
I160
saa(lp2339
(g2225
NS'8'
S'D'
tp2340
a(dp2341
g7
I64
saa(lp2342
(g2225
NS'8'
S'E'
tp2343
a(dp2344
g7
I160
saa(lp2345
(S'Shield Booster'
p2346
NS'0'
S'A'
tp2347
a(dp2348
g7
F3.5
saa(lp2349
(g2346
NS'0'
S'B'
tp2350
a(dp2351
g7
I3
saa(lp2352
(g2346
NS'0'
S'C'
tp2353
a(dp2354
g7
I2
saa(lp2355
(g2346
NS'0'
S'D'
tp2356
a(dp2357
g7
I1
saa(lp2358
(g2346
NS'0'
S'E'
tp2359
a(dp2360
g7
F0.5
saa(lp2361
(S'Shield Cell Bank'
p2362
NS'1'
S'A'
tp2363
a(dp2364
g7
F1.3
saa(lp2365
(g2362
NS'1'
S'B'
tp2366
a(dp2367
g7
I2
saa(lp2368
(g2362
NS'1'
S'C'
tp2369
a(dp2370
g7
F1.3
saa(lp2371
(g2362
NS'1'
S'D'
tp2372
a(dp2373
g7
F0.5
saa(lp2374
(g2362
NS'1'
S'E'
tp2375
a(dp2376
g7
F1.3
saa(lp2377
(g2362
NS'2'
S'A'
tp2378
a(dp2379
g7
F2.5
saa(lp2380
(g2362
NS'2'
S'B'
tp2381
a(dp2382
g7
I4
saa(lp2383
(g2362
NS'2'
S'C'
tp2384
a(dp2385
g7
F2.5
saa(lp2386
(g2362
NS'2'
S'D'
tp2387
a(dp2388
g7
I1
saa(lp2389
(g2362
NS'2'
S'E'
tp2390
a(dp2391
g7
F2.5
saa(lp2392
(g2362
NS'3'
S'A'
tp2393
a(dp2394
g7
I5
saa(lp2395
(g2362
NS'3'
S'B'
tp2396
a(dp2397
g7
I8
saa(lp2398
(g2362
NS'3'
S'C'
tp2399
a(dp2400
g7
I5
saa(lp2401
(g2362
NS'3'
S'D'
tp2402
a(dp2403
g7
I2
saa(lp2404
(g2362
NS'3'
S'E'
tp2405
a(dp2406
g7
I5
saa(lp2407
(g2362
NS'4'
S'A'
tp2408
a(dp2409
g7
I10
saa(lp2410
(g2362
NS'4'
S'B'
tp2411
a(dp2412
g7
I16
saa(lp2413
(g2362
NS'4'
S'C'
tp2414
a(dp2415
g7
I10
saa(lp2416
(g2362
NS'4'
S'D'
tp2417
a(dp2418
g7
I4
saa(lp2419
(g2362
NS'4'
S'E'
tp2420
a(dp2421
g7
I10
saa(lp2422
(g2362
NS'5'
S'A'
tp2423
a(dp2424
g7
I20
saa(lp2425
(g2362
NS'5'
S'B'
tp2426
a(dp2427
g7
I32
saa(lp2428
(g2362
NS'5'
S'C'
tp2429
a(dp2430
g7
I20
saa(lp2431
(g2362
NS'5'
S'D'
tp2432
a(dp2433
g7
I8
saa(lp2434
(g2362
NS'5'
S'E'
tp2435
a(dp2436
g7
I20
saa(lp2437
(g2362
NS'6'
S'A'
tp2438
a(dp2439
g7
I40
saa(lp2440
(g2362
NS'6'
S'B'
tp2441
a(dp2442
g7
I64
saa(lp2443
(g2362
NS'6'
S'C'
tp2444
a(dp2445
g7
I40
saa(lp2446
(g2362
NS'6'
S'D'
tp2447
a(dp2448
g7
I16
saa(lp2449
(g2362
NS'6'
S'E'
tp2450
a(dp2451
g7
I40
saa(lp2452
(g2362
NS'7'
S'A'
tp2453
a(dp2454
g7
I80
saa(lp2455
(g2362
NS'7'
S'B'
tp2456
a(dp2457
g7
I128
saa(lp2458
(g2362
NS'7'
S'C'
tp2459
a(dp2460
g7
I80
saa(lp2461
(g2362
NS'7'
S'D'
tp2462
a(dp2463
g7
I32
saa(lp2464
(g2362
NS'7'
S'E'
tp2465
a(dp2466
g7
I80
saa(lp2467
(g2362
NS'8'
S'A'
tp2468
a(dp2469
g7
I160
saa(lp2470
(g2362
NS'8'
S'B'
tp2471
a(dp2472
g7
I256
saa(lp2473
(g2362
NS'8'
S'C'
tp2474
a(dp2475
g7
I160
saa(lp2476
(g2362
NS'8'
S'D'
tp2477
a(dp2478
g7
I64
saa(lp2479
(g2362
NS'8'
S'E'
tp2480
a(dp2481
g7
I160
saa(lp2482
(S'Shield Generator'
p2483
NS'1'
S'A'
tp2484
a(dp2485
g7
F1.3
saa(lp2486
(g2483
NS'2'
S'A'
tp2487
a(dp2488
g7
F2.5
saa(lp2489
(g2483
NS'2'
S'B'
tp2490
a(dp2491
g7
I4
saa(lp2492
(g2483
NS'2'
S'C'
tp2493
a(dp2494
g7
F2.5
saa(lp2495
(g2483
NS'2'
S'D'
tp2496
a(dp2497
g7
I1
saa(lp2498
(g2483
NS'2'
S'E'
tp2499
a(dp2500
g7
F2.5
saa(lp2501
(g2483
NS'3'
S'A'
tp2502
a(dp2503
g7
I5
saa(lp2504
(g2483
NS'3'
S'B'
tp2505
a(dp2506
g7
I8
saa(lp2507
(g2483
NS'3'
S'C'
tp2508
a(dp2509
g7
I5
saa(lp2510
(g2483
NS'3'
S'D'
tp2511
a(dp2512
g7
I2
saa(lp2513
(g2483
NS'3'
S'E'
tp2514
a(dp2515
g7
I5
saa(lp2516
(g2483
NS'4'
S'A'
tp2517
a(dp2518
g7
I10
saa(lp2519
(g2483
NS'4'
S'B'
tp2520
a(dp2521
g7
I16
saa(lp2522
(g2483
NS'4'
S'C'
tp2523
a(dp2524
g7
I10
saa(lp2525
(g2483
NS'4'
S'D'
tp2526
a(dp2527
g7
I4
saa(lp2528
(g2483
NS'4'
S'E'
tp2529
a(dp2530
g7
I10
saa(lp2531
(g2483
NS'5'
S'A'
tp2532
a(dp2533
g7
I20
saa(lp2534
(g2483
NS'5'
S'B'
tp2535
a(dp2536
g7
I32
saa(lp2537
(g2483
NS'5'
S'C'
tp2538
a(dp2539
g7
I20
saa(lp2540
(g2483
NS'5'
S'D'
tp2541
a(dp2542
g7
I8
saa(lp2543
(g2483
NS'5'
S'E'
tp2544
a(dp2545
g7
I20
saa(lp2546
(g2483
NS'6'
S'A'
tp2547
a(dp2548
g7
I40
saa(lp2549
(g2483
NS'6'
S'B'
tp2550
a(dp2551
g7
I64
saa(lp2552
(g2483
NS'6'
S'C'
tp2553
a(dp2554
g7
I40
saa(lp2555
(g2483
NS'6'
S'D'
tp2556
a(dp2557
g7
I16
saa(lp2558
(g2483
NS'6'
S'E'
tp2559
a(dp2560
g7
I40
saa(lp2561
(g2483
NS'7'
S'A'
tp2562
a(dp2563
g7
I80
saa(lp2564
(g2483
NS'7'
S'B'
tp2565
a(dp2566
g7
I128
saa(lp2567
(g2483
NS'7'
S'C'
tp2568
a(dp2569
g7
I80
saa(lp2570
(g2483
NS'7'
S'D'
tp2571
a(dp2572
g7
I32
saa(lp2573
(g2483
NS'7'
S'E'
tp2574
a(dp2575
g7
I80
saa(lp2576
(g2483
NS'8'
S'A'
tp2577
a(dp2578
g7
I160
saa(lp2579
(g2483
NS'8'
S'B'
tp2580
a(dp2581
g7
I256
saa(lp2582
(g2483
NS'8'
S'C'
tp2583
a(dp2584
g7
I160
saa(lp2585
(g2483
NS'8'
S'D'
tp2586
a(dp2587
g7
I64
saa(lp2588
(g2483
NS'8'
S'E'
tp2589
a(dp2590
g7
I160
saa(lp2591
(S'Shock Mine Launcher'
p2592
NS'1'
S'I'
tp2593
a(dp2594
g7
I2
saa(lp2595
(S'Shutdown Field Neutraliser'
p2596
NS'0'
S'F'
tp2597
a(dp2598
g7
F1.3
saa(lp2599
(S'Standard Docking Computer'
p2600
NS'1'
S'E'
tp2601
a(dp2602
g7
I0
saa(lp2603
(S'Thrusters'
p2604
NS'2'
S'A'
tp2605
a(dp2606
g7
F2.5
saa(lp2607
(g2604
NS'2'
S'B'
tp2608
a(dp2609
g7
I4
saa(lp2610
(g2604
NS'2'
S'C'
tp2611
a(dp2612
g7
F2.5
saa(lp2613
(g2604
NS'2'
S'D'
tp2614
a(dp2615
g7
I1
saa(lp2616
(g2604
NS'2'
S'E'
tp2617
a(dp2618
g7
F2.5
saa(lp2619
(g2604
NS'3'
S'A'
tp2620
a(dp2621
g7
I5
saa(lp2622
(g2604
NS'3'
S'B'
tp2623
a(dp2624
g7
I8
saa(lp2625
(g2604
NS'3'
S'C'
tp2626
a(dp2627
g7
I5
saa(lp2628
(g2604
NS'3'
S'D'
tp2629
a(dp2630
g7
I2
saa(lp2631
(g2604
NS'3'
S'E'
tp2632
a(dp2633
g7
I5
saa(lp2634
(g2604
NS'4'
S'A'
tp2635
a(dp2636
g7
I10
saa(lp2637
(g2604
NS'4'
S'B'
tp2638
a(dp2639
g7
I16
saa(lp2640
(g2604
NS'4'
S'C'
tp2641
a(dp2642
g7
I10
saa(lp2643
(g2604
NS'4'
S'D'
tp2644
a(dp2645
g7
I4
saa(lp2646
(g2604
NS'4'
S'E'
tp2647
a(dp2648
g7
I10
saa(lp2649
(g2604
NS'5'
S'A'
tp2650
a(dp2651
g7
I20
saa(lp2652
(g2604
NS'5'
S'B'
tp2653
a(dp2654
g7
I32
saa(lp2655
(g2604
NS'5'
S'C'
tp2656
a(dp2657
g7
I20
saa(lp2658
(g2604
NS'5'
S'D'
tp2659
a(dp2660
g7
I8
saa(lp2661
(g2604
NS'5'
S'E'
tp2662
a(dp2663
g7
I20
saa(lp2664
(g2604
NS'6'
S'A'
tp2665
a(dp2666
g7
I40
saa(lp2667
(g2604
NS'6'
S'B'
tp2668
a(dp2669
g7
I64
saa(lp2670
(g2604
NS'6'
S'C'
tp2671
a(dp2672
g7
I40
saa(lp2673
(g2604
NS'6'
S'D'
tp2674
a(dp2675
g7
I16
saa(lp2676
(g2604
NS'6'
S'E'
tp2677
a(dp2678
g7
I40
saa(lp2679
(g2604
NS'7'
S'A'
tp2680
a(dp2681
g7
I80
saa(lp2682
(g2604
NS'7'
S'B'
tp2683
a(dp2684
g7
I128
saa(lp2685
(g2604
NS'7'
S'C'
tp2686
a(dp2687
g7
I80
saa(lp2688
(g2604
NS'7'
S'D'
tp2689
a(dp2690
g7
I32
saa(lp2691
(g2604
NS'7'
S'E'
tp2692
a(dp2693
g7
I80
saa(lp2694
(g2604
NS'8'
S'A'
tp2695
a(dp2696
g7
I160
saa(lp2697
(g2604
NS'8'
S'B'
tp2698
a(dp2699
g7
I256
saa(lp2700
(g2604
NS'8'
S'C'
tp2701
a(dp2702
g7
I160
saa(lp2703
(g2604
NS'8'
S'D'
tp2704
a(dp2705
g7
I64
saa(lp2706
(g2604
NS'8'
S'E'
tp2707
a(dp2708
g7
I160
saa(lp2709
(S'Torpedo Pylon'
p2710
NS'1'
S'I'
tp2711
a(dp2712
g7
I2
saa(lp2713
(g2710
NS'2'
S'I'
tp2714
a(dp2715
g7
I4
saa(lp2716
(S'Xeno Scanner'
p2717
NS'0'
S'E'
tp2718
a(dp2719
g7
F1.3
saatRp2720
.