ccollections
OrderedDict
p1
((lp2
(lp3
(S'AX Missile Rack'
p4
NS'2'
S'B'
tp5
a(dp6
S'mass'
p7
I4
saa(lp8
(S'Advanced Discovery Scanner'
p9
NS'1'
S'C'
tp10
a(dp11
g7
I2
saa(lp12
(S'Advanced Plasma Accelerator'
p13
NS'3'
S'B'
tp14
a(dp15
g7
I8
saa(lp16
(S'Auto Field-Maintenance Unit'
p17
NS'1'
S'A'
tp18
a(dp19
g7
I0
saa(lp20
(g17
NS'1'
S'B'
tp21
a(dp22
g7
I0
saa(lp23
(g17
NS'1'
S'C'
tp24
a(dp25
g7
I0
saa(lp26
(g17
NS'1'
S'D'
tp27
a(dp28
g7
I0
saa(lp29
(g17
NS'1'
S'E'
tp30
a(dp31
g7
I0
saa(lp32
(g17
NS'2'
S'A'
tp33
a(dp34
g7
I0
saa(lp35
(g17
NS'2'
S'B'
tp36
a(dp37
g7
I0
saa(lp38
(g17
NS'2'
S'C'
tp39
a(dp40
g7
I0
saa(lp41
(g17
NS'2'
S'D'
tp42
a(dp43
g7
I0
saa(lp44
(g17
NS'2'
S'E'
tp45
a(dp46
g7
I0
saa(lp47
(g17
NS'3'
S'A'
tp48
a(dp49
g7
I0
saa(lp50
(g17
NS'3'
S'B'
tp51
a(dp52
g7
I0
saa(lp53
(g17
NS'3'
S'C'
tp54
a(dp55
g7
I0
saa(lp56
(g17
NS'3'
S'D'
tp57
a(dp58
g7
I0
saa(lp59
(g17
NS'3'
S'E'
tp60
a(dp61
g7
I0
saa(lp62
(g17
NS'4'
S'A'
tp63
a(dp64
g7
I0
saa(lp65
(g17
NS'4'
S'B'
tp66
a(dp67
g7
I0
saa(lp68
(g17
NS'4'
S'C'
tp69
a(dp70
g7
I0
saa(lp71
(g17
NS'4'
S'D'
tp72
a(dp73
g7
I0
saa(lp74
(g17
NS'4'
S'E'
tp75
a(dp76
g7
I0
saa(lp77
(g17
NS'5'
S'A'
tp78
a(dp79
g7
I0
saa(lp80
(g17
NS'5'
S'B'
tp81
a(dp82
g7
I0
saa(lp83
(g17
NS'5'
S'C'
tp84
a(dp85
g7
I0
saa(lp86
(g17
NS'5'
S'D'
tp87
a(dp88
g7
I0
saa(lp89
(g17
NS'5'
S'E'
tp90
a(dp91
g7
I0
saa(lp92
(g17
NS'6'
S'A'
tp93
a(dp94
g7
I0
saa(lp95
(g17
NS'6'
S'B'
tp96
a(dp97
g7
I0
saa(lp98
(g17
NS'6'
S'C'
tp99
a(dp100
g7
I0
saa(lp101
(g17
NS'6'
S'D'
tp102
a(dp103
g7
I0
saa(lp104
(g17
NS'6'
S'E'
tp105
a(dp106
g7
I0
saa(lp107
(g17
NS'7'
S'A'
tp108
a(dp109
g7
I0
saa(lp110
(g17
NS'7'
S'B'
tp111
a(dp112
g7
I0
saa(lp113
(g17
NS'7'
S'C'
tp114
a(dp115
g7
I0
saa(lp116
(g17
NS'7'
S'D'
tp117
a(dp118
g7
I0
saa(lp119
(g17
NS'7'
S'E'
tp120
a(dp121
g7
I0
saa(lp122
(g17
NS'8'
S'A'
tp123
a(dp124
g7
I0
saa(lp125
(g17
NS'8'
S'B'
tp126
a(dp127
g7
I0
saa(lp128
(g17
NS'8'
S'C'
tp129
a(dp130
g7
I0
saa(lp131
(g17
NS'8'
S'D'
tp132
a(dp133
g7
I0
saa(lp134
(g17
NS'8'
S'E'
tp135
a(dp136
g7
I0
saa(lp137
(S'Basic Discovery Scanner'
p138
NS'1'
S'E'
tp139
a(dp140
g7
I2
saa(lp141
(S'Beam Laser'
p142
NS'1'
S'E'
tp143
a(dp144
g7
I2
saa(lp145
(g142
NS'1'
S'F'
tp146
a(dp147
g7
I2
saa(lp148
(g142
NS'2'
S'D'
tp149
a(dp150
g7
I4
saa(lp151
(g142
NS'2'
S'E'
tp152
a(dp153
g7
I4
saa(lp154
(g142
NS'3'
S'C'
tp155
a(dp156
g7
I8
saa(lp157
(g142
NS'3'
S'D'
tp158
a(dp159
g7
I8
saa(lp160
(g142
NS'4'
S'A'
tp161
a(dp162
g7
I16
saa(lp163
(S'Bi-Weave Shield Generator'
p164
NS'1'
S'C'
tp165
a(dp166
g7
F1.3
saa(lp167
(g164
NS'2'
S'C'
tp168
a(dp169
g7
F2.5
saa(lp170
(g164
NS'3'
S'C'
tp171
a(dp172
g7
I5
saa(lp173
(g164
NS'4'
S'C'
tp174
a(dp175
g7
I10
saa(lp176
(g164
NS'5'
S'C'
tp177
a(dp178
g7
I20
saa(lp179
(g164
NS'6'
S'C'
tp180
a(dp181
g7
I40
saa(lp182
(g164
NS'7'
S'C'
tp183
a(dp184
g7
I80
saa(lp185
(g164
NS'8'
S'C'
tp186
a(dp187
g7
I160
saa(lp188
(S'Burst Laser'
p189
NS'1'
S'F'
tp190
a(dp191
g7
I2
saa(lp192
(g189
NS'1'
S'G'
tp193
a(dp194
g7
I2
saa(lp195
(g189
NS'2'
S'E'
tp196
a(dp197
g7
I4
saa(lp198
(g189
NS'2'
S'F'
tp199
a(dp200
g7
I4
saa(lp201
(g189
NS'3'
S'D'
tp202
a(dp203
g7
I8
saa(lp204
(g189
NS'3'
S'E'
tp205
a(dp206
g7
I8
saa(lp207
(g189
NS'4'
S'E'
tp208
a(dp209
g7
I16
saa(lp210
(S'Business Class Passenger Cabin'
p211
NS'3'
S'D'
tp212
a(dp213
g7
I5
saa(lp214
(g211
NS'4'
S'D'
tp215
a(dp216
g7
I10
saa(lp217
(g211
NS'5'
S'D'
tp218
a(dp219
g7
I20
saa(lp220
(g211
NS'6'
S'D'
tp221
a(dp222
g7
I40
saa(lp223
(S'Cannon'
p224
NS'1'
S'D'
tp225
a(dp226
g7
I2
saa(lp227
(g224
NS'1'
S'E'
tp228
a(dp229
g7
I2
saa(lp230
(g224
NS'1'
S'F'
tp231
a(dp232
g7
I2
saa(lp233
(g224
NS'2'
S'D'
tp234
a(dp235
g7
I4
saa(lp236
(g224
NS'2'
S'E'
tp237
a(dp238
g7
I4
saa(lp239
(g224
NS'3'
S'C'
tp240
a(dp241
g7
I8
saa(lp242
(g224
NS'3'
S'D'
tp243
a(dp244
g7
I8
saa(lp245
(g224
NS'4'
S'B'
tp246
a(dp247
g7
I16
saa(lp248
(S'Cargo Rack'
p249
NS'1'
S'E'
tp250
a(dp251
g7
I0
saa(lp252
(g249
NS'2'
S'E'
tp253
a(dp254
g7
I0
saa(lp255
(g249
NS'3'
S'E'
tp256
a(dp257
g7
I0
saa(lp258
(g249
NS'4'
S'E'
tp259
a(dp260
g7
I0
saa(lp261
(g249
NS'5'
S'E'
tp262
a(dp263
g7
I0
saa(lp264
(g249
NS'6'
S'E'
tp265
a(dp266
g7
I0
saa(lp267
(g249
NS'7'
S'E'
tp268
a(dp269
g7
I0
saa(lp270
(g249
NS'8'
S'E'
tp271
a(dp272
g7
I0
saa(lp273
(S'Cargo Scanner'
p274
NS'0'
S'A'
tp275
a(dp276
g7
F1.3
saa(lp277
(g274
NS'0'
S'B'
tp278
a(dp279
g7
F1.3
saa(lp280
(g274
NS'0'
S'C'
tp281
a(dp282
g7
F1.3
saa(lp283
(g274
NS'0'
S'D'
tp284
a(dp285
g7
F1.3
saa(lp286
(g274
NS'0'
S'E'
tp287
a(dp288
g7
F1.3
saa(lp289
(S'Chaff Launcher'
p290
NS'0'
S'I'
tp291
a(dp292
g7
F1.3
saa(lp293
(S'Collector Limpet Controller'
p294
NS'1'
S'A'
tp295
a(dp296
g7
I2
saa(lp297
(g294
NS'1'
S'B'
tp298
a(dp299
g7
I2
saa(lp300
(g294
NS'1'
S'C'
tp301
a(dp302
g7
F1.3
saa(lp303
(g294
NS'1'
S'D'
tp304
a(dp305
g7
F0.5
saa(lp306
(g294
NS'1'
S'E'
tp307
a(dp308
g7
F0.5
saa(lp309
(g294
NS'3'
S'A'
tp310
a(dp311
g7
I8
saa(lp312
(g294
NS'3'
S'B'
tp313
a(dp314
g7
I8
saa(lp315
(g294
NS'3'
S'C'
tp316
a(dp317
g7
I5
saa(lp318
(g294
NS'3'
S'D'
tp319
a(dp320
g7
I2
saa(lp321
(g294
NS'3'
S'E'
tp322
a(dp323
g7
I2
saa(lp324
(g294
NS'5'
S'A'
tp325
a(dp326
g7
I32
saa(lp327
(g294
NS'5'
S'B'
tp328
a(dp329
g7
I32
saa(lp330
(g294
NS'5'
S'C'
tp331
a(dp332
g7
I20
saa(lp333
(g294
NS'5'
S'D'
tp334
a(dp335
g7
I8
saa(lp336
(g294
NS'5'
S'E'
tp337
a(dp338
g7
I8
saa(lp339
(g294
NS'7'
S'A'
tp340
a(dp341
g7
I128
saa(lp342
(g294
NS'7'
S'B'
tp343
a(dp344
g7
I128
saa(lp345
(g294
NS'7'
S'C'
tp346
a(dp347
g7
I80
saa(lp348
(g294
NS'7'
S'D'
tp349
a(dp350
g7
I32
saa(lp351
(g294
NS'7'
S'E'
tp352
a(dp353
g7
I32
saa(lp354
(S'Corrosion Resistant Cargo Rack'
p355
NS'1'
S'E'
tp356
a(dp357
g7
I0
saa(lp358
(g355
NS'1'
S'F'
tp359
a(dp360
g7
I0
saa(lp361
(S'Cytoscrambler Burst Laser'
p362
NS'1'
S'F'
tp363
a(dp364
g7
I2
saa(lp365
(S'Detailed Surface Scanner'
p366
NS'1'
S'C'
tp367
a(dp368
g7
F1.3
saa(lp369
(S'Economy Class Passenger Cabin'
p370
NS'2'
S'E'
tp371
a(dp372
g7
F2.5
saa(lp373
(g370
NS'3'
S'E'
tp374
a(dp375
g7
I5
saa(lp376
(g370
NS'4'
S'E'
tp377
a(dp378
g7
I10
saa(lp379
(g370
NS'5'
S'E'
tp380
a(dp381
g7
I20
saa(lp382
(g370
NS'6'
S'E'
tp383
a(dp384
g7
I40
saa(lp385
(S'Electronic Countermeasure'
p386
NS'0'
S'F'
tp387
a(dp388
g7
F1.3
saa(lp389
(S'Enforcer Cannon'
p390
NS'1'
S'F'
tp391
a(dp392
g7
I2
saa(lp393
(S'Enhanced Performance Thrusters'
p394
NS'2'
S'A'
tp395
a(dp396
g7
F2.5
saa(lp397
(g394
NS'3'
S'A'
tp398
a(dp399
g7
I5
saa(lp400
(S'Fighter Hangar'
p401
NS'5'
S'D'
tp402
a(dp403
g7
I20
saa(lp404
(g401
NS'6'
S'D'
tp405
a(dp406
g7
I40
saa(lp407
(g401
NS'7'
S'D'
tp408
a(dp409
g7
I60
saa(lp410
(S'First Class Passenger Cabin'
p411
NS'4'
S'C'
tp412
a(dp413
g7
I10
saa(lp414
(g411
NS'5'
S'C'
tp415
a(dp416
g7
I20
saa(lp417
(g411
NS'6'
S'C'
tp418
a(dp419
g7
I40
saa(lp420
(S'Fragment Cannon'
p421
NS'1'
S'E'
tp422
a(dp423
g7
I2
saa(lp424
(g421
NS'2'
S'A'
tp425
a(dp426
g7
I4
saa(lp427
(g421
NS'2'
S'D'
tp428
a(dp429
g7
I4
saa(lp430
(g421
NS'3'
S'C'
tp431
a(dp432
g7
I8
saa(lp433
(S'Frame Shift Drive'
p434
NS'2'
S'A'
tp435
a(dp436
S'optmass'
p437
I90
sS'fuelmul'
p438
F0.012
sg7
F2.5
sS'maxfuel'
p439
F0.90000000000000002
sS'fuelpower'
p440
I2
saa(lp441
(g434
NS'2'
S'B'
tp442
a(dp443
g437
I75
sg438
F0.01
sg7
I4
sg439
F0.80000000000000004
sg440
I2
saa(lp444
(g434
NS'2'
S'C'
tp445
a(dp446
g437
I60
sg438
F0.0080000000000000002
sg7
F2.5
sg439
F0.59999999999999998
sg440
I2
saa(lp447
(g434
NS'2'
S'D'
tp448
a(dp449
g437
I54
sg438
F0.01
sg7
I1
sg439
F0.59999999999999998
sg440
I2
saa(lp450
(g434
NS'2'
S'E'
tp451
a(dp452
g437
I48
sg438
F0.010999999999999999
sg7
F2.5
sg439
F0.59999999999999998
sg440
I2
saa(lp453
(g434
NS'3'
S'A'
tp454
a(dp455
g437
I150
sg438
F0.012
sg7
I5
sg439
F1.8
sg440
F2.1499999999999999
saa(lp456
(g434
NS'3'
S'B'
tp457
a(dp458
g437
I125
sg438
F0.01
sg7
I8
sg439
F1.5
sg440
F2.1499999999999999
saa(lp459
(g434
NS'3'
S'C'
tp460
a(dp461
g437
I100
sg438
F0.0080000000000000002
sg7
I5
sg439
F1.2
sg440
F2.1499999999999999
saa(lp462
(g434
NS'3'
S'D'
tp463
a(dp464
g437
I90
sg438
F0.01
sg7
I2
sg439
F1.2
sg440
F2.1499999999999999
saa(lp465
(g434
NS'3'
S'E'
tp466
a(dp467
g437
I80
sg438
F0.010999999999999999
sg7
I5
sg439
F1.2
sg440
F2.1499999999999999
saa(lp468
(g434
NS'4'
S'A'
tp469
a(dp470
g437
I525
sg438
F0.012
sg7
I10
sg439
I3
sg440
F2.2999999999999998
saa(lp471
(g434
NS'4'
S'B'
tp472
a(dp473
g437
F437.5
sg438
F0.01
sg7
I16
sg439
F2.5
sg440
F2.2999999999999998
saa(lp474
(g434
NS'4'
S'C'
tp475
a(dp476
g437
I350
sg438
F0.0080000000000000002
sg7
I10
sg439
I2
sg440
F2.2999999999999998
saa(lp477
(g434
NS'4'
S'D'
tp478
a(dp479
g437
I315
sg438
F0.01
sg7
I4
sg439
I2
sg440
F2.2999999999999998
saa(lp480
(g434
NS'4'
S'E'
tp481
a(dp482
g437
I280
sg438
F0.010999999999999999
sg7
I10
sg439
I2
sg440
F2.2999999999999998
saa(lp483
(g434
NS'5'
S'A'
tp484
a(dp485
g437
I1050
sg438
F0.012
sg7
I20
sg439
I5
sg440
F2.4500000000000002
saa(lp486
(g434
NS'5'
S'B'
tp487
a(dp488
g437
I875
sg438
F0.01
sg7
I32
sg439
F4.0999999999999996
sg440
F2.4500000000000002
saa(lp489
(g434
NS'5'
S'C'
tp490
a(dp491
g437
I700
sg438
F0.0080000000000000002
sg7
I20
sg439
F3.2999999999999998
sg440
F2.4500000000000002
saa(lp492
(g434
NS'5'
S'D'
tp493
a(dp494
g437
I630
sg438
F0.01
sg7
I8
sg439
F3.2999999999999998
sg440
F2.4500000000000002
saa(lp495
(g434
NS'5'
S'E'
tp496
a(dp497
g437
I560
sg438
F0.010999999999999999
sg7
I20
sg439
F3.2999999999999998
sg440
F2.4500000000000002
saa(lp498
(g434
NS'6'
S'A'
tp499
a(dp500
g437
I1800
sg438
F0.012
sg7
I40
sg439
I8
sg440
F2.6000000000000001
saa(lp501
(g434
NS'6'
S'B'
tp502
a(dp503
g437
I1500
sg438
F0.01
sg7
I64
sg439
F6.5999999999999996
sg440
F2.6000000000000001
saa(lp504
(g434
NS'6'
S'C'
tp505
a(dp506
g437
I1200
sg438
F0.0080000000000000002
sg7
I40
sg439
F5.2999999999999998
sg440
F2.6000000000000001
saa(lp507
(g434
NS'6'
S'D'
tp508
a(dp509
g437
I1080
sg438
F0.01
sg7
I16
sg439
F5.2999999999999998
sg440
F2.6000000000000001
saa(lp510
(g434
NS'6'
S'E'
tp511
a(dp512
g437
I960
sg438
F0.010999999999999999
sg7
I40
sg439
F5.2999999999999998
sg440
F2.6000000000000001
saa(lp513
(g434
NS'7'
S'A'
tp514
a(dp515
g437
I2700
sg438
F0.012
sg7
I80
sg439
F12.800000000000001
sg440
F2.75
saa(lp516
(g434
NS'7'
S'B'
tp517
a(dp518
g437
I2250
sg438
F0.01
sg7
I128
sg439
F10.6
sg440
F2.75
saa(lp519
(g434
NS'7'
S'C'
tp520
a(dp521
g437
I1800
sg438
F0.0080000000000000002
sg7
I80
sg439
F8.5
sg440
F2.75
saa(lp522
(g434
NS'7'
S'D'
tp523
a(dp524
g437
I1620
sg438
F0.01
sg7
I32
sg439
F8.5
sg440
F2.75
saa(lp525
(g434
NS'7'
S'E'
tp526
a(dp527
g437
I1440
sg438
F0.010999999999999999
sg7
I80
sg439
F8.5
sg440
F2.75
saa(lp528
(g434
NS'8'
S'A'
tp529
a(dp530
g437
I0
sg438
F0.012
sg7
I160
sg439
I0
sg440
F2.8999999999999999
saa(lp531
(g434
NS'8'
S'B'
tp532
a(dp533
g437
I0
sg438
F0.01
sg7
I256
sg439
I0
sg440
F2.8999999999999999
saa(lp534
(g434
NS'8'
S'C'
tp535
a(dp536
g437
I0
sg438
F0.0080000000000000002
sg7
I160
sg439
I0
sg440
F2.8999999999999999
saa(lp537
(g434
NS'8'
S'D'
tp538
a(dp539
g437
I0
sg438
F0.01
sg7
I64
sg439
I0
sg440
F2.8999999999999999
saa(lp540
(g434
NS'8'
S'E'
tp541
a(dp542
g437
I0
sg438
F0.010999999999999999
sg7
I160
sg439
I0
sg440
F2.8999999999999999
saa(lp543
(S'Frame Shift Drive Interdictor'
p544
NS'1'
S'A'
tp545
a(dp546
g7
F1.3
saa(lp547
(g544
NS'1'
S'B'
tp548
a(dp549
g7
I2
saa(lp550
(g544
NS'1'
S'C'
tp551
a(dp552
g7
F1.3
saa(lp553
(g544
NS'1'
S'D'
tp554
a(dp555
g7
F0.5
saa(lp556
(g544
NS'1'
S'E'
tp557
a(dp558
g7
F1.3
saa(lp559
(g544
NS'2'
S'A'
tp560
a(dp561
g7
F2.5
saa(lp562
(g544
NS'2'
S'B'
tp563
a(dp564
g7
I4
saa(lp565
(g544
NS'2'
S'C'
tp566
a(dp567
g7
F2.5
saa(lp568
(g544
NS'2'
S'D'
tp569
a(dp570
g7
I1
saa(lp571
(g544
NS'2'
S'E'
tp572
a(dp573
g7
F2.5
saa(lp574
(g544
NS'3'
S'A'
tp575
a(dp576
g7
I5
saa(lp577
(g544
NS'3'
S'B'
tp578
a(dp579
g7
I8
saa(lp580
(g544
NS'3'
S'C'
tp581
a(dp582
g7
I5
saa(lp583
(g544
NS'3'
S'D'
tp584
a(dp585
g7
I2
saa(lp586
(g544
NS'3'
S'E'
tp587
a(dp588
g7
I5
saa(lp589
(g544
NS'4'
S'A'
tp590
a(dp591
g7
I10
saa(lp592
(g544
NS'4'
S'B'
tp593
a(dp594
g7
I16
saa(lp595
(g544
NS'4'
S'C'
tp596
a(dp597
g7
I10
saa(lp598
(g544
NS'4'
S'D'
tp599
a(dp600
g7
I4
saa(lp601
(g544
NS'4'
S'E'
tp602
a(dp603
g7
I10
saa(lp604
(S'Frame Shift Wake Scanner'
p605
NS'0'
S'A'
tp606
a(dp607
g7
F1.3
saa(lp608
(g605
NS'0'
S'B'
tp609
a(dp610
g7
F1.3
saa(lp611
(g605
NS'0'
S'C'
tp612
a(dp613
g7
F1.3
saa(lp614
(g605
NS'0'
S'D'
tp615
a(dp616
g7
F1.3
saa(lp617
(g605
NS'0'
S'E'
tp618
a(dp619
g7
F1.3
saa(lp620
(S'Fuel Scoop'
p621
NS'1'
S'A'
tp622
a(dp623
g7
I0
saa(lp624
(g621
NS'1'
S'B'
tp625
a(dp626
g7
I0
saa(lp627
(g621
NS'1'
S'C'
tp628
a(dp629
g7
I0
saa(lp630
(g621
NS'1'
S'D'
tp631
a(dp632
g7
I0
saa(lp633
(g621
NS'1'
S'E'
tp634
a(dp635
g7
I0
saa(lp636
(g621
NS'2'
S'A'
tp637
a(dp638
g7
I0
saa(lp639
(g621
NS'2'
S'B'
tp640
a(dp641
g7
I0
saa(lp642
(g621
NS'2'
S'C'
tp643
a(dp644
g7
I0
saa(lp645
(g621
NS'2'
S'D'
tp646
a(dp647
g7
I0
saa(lp648
(g621
NS'2'
S'E'
tp649
a(dp650
g7
I0
saa(lp651
(g621
NS'3'
S'A'
tp652
a(dp653
g7
I0
saa(lp654
(g621
NS'3'
S'B'
tp655
a(dp656
g7
I0
saa(lp657
(g621
NS'3'
S'C'
tp658
a(dp659
g7
I0
saa(lp660
(g621
NS'3'
S'D'
tp661
a(dp662
g7
I0
saa(lp663
(g621
NS'3'
S'E'
tp664
a(dp665
g7
I0
saa(lp666
(g621
NS'4'
S'A'
tp667
a(dp668
g7
I0
saa(lp669
(g621
NS'4'
S'B'
tp670
a(dp671
g7
I0
saa(lp672
(g621
NS'4'
S'C'
tp673
a(dp674
g7
I0
saa(lp675
(g621
NS'4'
S'D'
tp676
a(dp677
g7
I0
saa(lp678
(g621
NS'4'
S'E'
tp679
a(dp680
g7
I0
saa(lp681
(g621
NS'5'
S'A'
tp682
a(dp683
g7
I0
saa(lp684
(g621
NS'5'
S'B'
tp685
a(dp686
g7
I0
saa(lp687
(g621
NS'5'
S'C'
tp688
a(dp689
g7
I0
saa(lp690
(g621
NS'5'
S'D'
tp691
a(dp692
g7
I0
saa(lp693
(g621
NS'5'
S'E'
tp694
a(dp695
g7
I0
saa(lp696
(g621
NS'6'
S'A'
tp697
a(dp698
g7
I0
saa(lp699
(g621
NS'6'
S'B'
tp700
a(dp701
g7
I0
saa(lp702
(g621
NS'6'
S'C'
tp703
a(dp704
g7
I0
saa(lp705
(g621
NS'6'
S'D'
tp706
a(dp707
g7
I0
saa(lp708
(g621
NS'6'
S'E'
tp709
a(dp710
g7
I0
saa(lp711
(g621
NS'7'
S'A'
tp712
a(dp713
g7
I0
saa(lp714
(g621
NS'7'
S'B'
tp715
a(dp716
g7
I0
saa(lp717
(g621
NS'7'
S'C'
tp718
a(dp719
g7
I0
saa(lp720
(g621
NS'7'
S'D'
tp721
a(dp722
g7
I0
saa(lp723
(g621
NS'7'
S'E'
tp724
a(dp725
g7
I0
saa(lp726
(g621
NS'8'
S'A'
tp727
a(dp728
g7
I0
saa(lp729
(g621
NS'8'
S'B'
tp730
a(dp731
g7
I0
saa(lp732
(g621
NS'8'
S'C'
tp733
a(dp734
g7
I0
saa(lp735
(g621
NS'8'
S'D'
tp736
a(dp737
g7
I0
saa(lp738
(g621
NS'8'
S'E'
tp739
a(dp740
g7
I0
saa(lp741
(S'Fuel Tank'
p742
NS'1'
S'C'
tp743
a(dp744
g7
I0
saa(lp745
(g742
NS'2'
S'C'
tp746
a(dp747
g7
I0
saa(lp748
(g742
NS'3'
S'C'
tp749
a(dp750
g7
I0
saa(lp751
(g742
NS'4'
S'C'
tp752
a(dp753
g7
I0
saa(lp754
(g742
NS'5'
S'C'
tp755
a(dp756
g7
I0
saa(lp757
(g742
NS'6'
S'C'
tp758
a(dp759
g7
I0
saa(lp760
(g742
NS'7'
S'C'
tp761
a(dp762
g7
I0
saa(lp763
(g742
NS'8'
S'C'
tp764
a(dp765
g7
I0
saa(lp766
(S'Fuel Transfer Limpet Controller'
p767
NS'1'
S'A'
tp768
a(dp769
g7
F1.3
saa(lp770
(g767
NS'1'
S'B'
tp771
a(dp772
g7
I2
saa(lp773
(g767
NS'1'
S'C'
tp774
a(dp775
g7
F1.3
saa(lp776
(g767
NS'1'
S'D'
tp777
a(dp778
g7
F0.5
saa(lp779
(g767
NS'1'
S'E'
tp780
a(dp781
g7
F1.3
saa(lp782
(g767
NS'3'
S'A'
tp783
a(dp784
g7
I5
saa(lp785
(g767
NS'3'
S'B'
tp786
a(dp787
g7
I8
saa(lp788
(g767
NS'3'
S'C'
tp789
a(dp790
g7
I5
saa(lp791
(g767
NS'3'
S'D'
tp792
a(dp793
g7
I2
saa(lp794
(g767
NS'3'
S'E'
tp795
a(dp796
g7
I5
saa(lp797
(g767
NS'5'
S'A'
tp798
a(dp799
g7
I20
saa(lp800
(g767
NS'5'
S'B'
tp801
a(dp802
g7
I32
saa(lp803
(g767
NS'5'
S'C'
tp804
a(dp805
g7
I20
saa(lp806
(g767
NS'5'
S'D'
tp807
a(dp808
g7
I8
saa(lp809
(g767
NS'5'
S'E'
tp810
a(dp811
g7
I20
saa(lp812
(g767
NS'7'
S'A'
tp813
a(dp814
g7
I80
saa(lp815
(g767
NS'7'
S'B'
tp816
a(dp817
g7
I128
saa(lp818
(g767
NS'7'
S'C'
tp819
a(dp820
g7
I80
saa(lp821
(g767
NS'7'
S'D'
tp822
a(dp823
g7
I32
saa(lp824
(g767
NS'7'
S'E'
tp825
a(dp826
g7
I80
saa(lp827
(S'Hatch Breaker Limpet Controller'
p828
NS'1'
S'A'
tp829
a(dp830
g7
F1.3
saa(lp831
(g828
NS'1'
S'B'
tp832
a(dp833
g7
I2
saa(lp834
(g828
NS'1'
S'C'
tp835
a(dp836
g7
F1.3
saa(lp837
(g828
NS'1'
S'D'
tp838
a(dp839
g7
F0.5
saa(lp840
(g828
NS'1'
S'E'
tp841
a(dp842
g7
F1.3
saa(lp843
(g828
NS'3'
S'A'
tp844
a(dp845
g7
I5
saa(lp846
(g828
NS'3'
S'B'
tp847
a(dp848
g7
I8
saa(lp849
(g828
NS'3'
S'C'
tp850
a(dp851
g7
I5
saa(lp852
(g828
NS'3'
S'D'
tp853
a(dp854
g7
I2
saa(lp855
(g828
NS'3'
S'E'
tp856
a(dp857
g7
I5
saa(lp858
(g828
NS'5'
S'A'
tp859
a(dp860
g7
I20
saa(lp861
(g828
NS'5'
S'B'
tp862
a(dp863
g7
I32
saa(lp864
(g828
NS'5'
S'C'
tp865
a(dp866
g7
I20
saa(lp867
(g828
NS'5'
S'D'
tp868
a(dp869
g7
I8
saa(lp870
(g828
NS'5'
S'E'
tp871
a(dp872
g7
I20
saa(lp873
(g828
NS'7'
S'A'
tp874
a(dp875
g7
I90
saa(lp876
(g828
NS'7'
S'B'
tp877
a(dp878
g7
I128
saa(lp879
(g828
NS'7'
S'C'
tp880
a(dp881
g7
I80
saa(lp882
(g828
NS'7'
S'D'
tp883
a(dp884
g7
I32
saa(lp885
(g828
NS'7'
S'E'
tp886
a(dp887
g7
I80
saa(lp888
(S'Heat Sink Launcher'
p889
NS'0'
S'I'
tp890
a(dp891
g7
F1.3
saa(lp892
(S'Hull Reinforcement Package'
p893
NS'1'
S'D'
tp894
a(dp895
g7
I1
saa(lp896
(g893
NS'1'
S'E'
tp897
a(dp898
g7
I2
saa(lp899
(g893
NS'2'
S'D'
tp900
a(dp901
g7
I2
saa(lp902
(g893
NS'2'
S'E'
tp903
a(dp904
g7
I4
saa(lp905
(g893
NS'3'
S'D'
tp906
a(dp907
g7
I4
saa(lp908
(g893
NS'3'
S'E'
tp909
a(dp910
g7
I8
saa(lp911
(g893
NS'4'
S'D'
tp912
a(dp913
g7
I8
saa(lp914
(g893
NS'4'
S'E'
tp915
a(dp916
g7
I16
saa(lp917
(g893
NS'5'
S'D'
tp918
a(dp919
g7
I16
saa(lp920
(g893
NS'5'
S'E'
tp921
a(dp922
g7
I32
saa(lp923
(S'Imperial Hammer Rail Gun'
p924
NS'2'
S'B'
tp925
a(dp926
g7
I4
saa(lp927
(S'Intermediate Discovery Scanner'
p928
NS'1'
S'D'
tp929
a(dp930
g7
I2
saa(lp931
(S'Kill Warrant Scanner'
p932
NS'0'
S'A'
tp933
a(dp934
g7
F1.3
saa(lp935
(g932
NS'0'
S'B'
tp936
a(dp937
g7
F1.3
saa(lp938
(g932
NS'0'
S'C'
tp939
a(dp940
g7
F1.3
saa(lp941
(g932
NS'0'
S'D'
tp942
a(dp943
g7
F1.3
saa(lp944
(g932
NS'0'
S'E'
tp945
a(dp946
g7
F1.3
saa(lp947
(S'Life Support'
p948
NS'1'
S'A'
tp949
a(dp950
g7
F1.3
saa(lp951
(g948
NS'1'
S'B'
tp952
a(dp953
g7
I2
saa(lp954
(g948
NS'1'
S'C'
tp955
a(dp956
g7
F1.3
saa(lp957
(g948
NS'1'
S'D'
tp958
a(dp959
g7
F0.5
saa(lp960
(g948
NS'1'
S'E'
tp961
a(dp962
g7
F1.3
saa(lp963
(g948
NS'2'
S'A'
tp964
a(dp965
g7
F2.5
saa(lp966
(g948
NS'2'
S'B'
tp967
a(dp968
g7
I4
saa(lp969
(g948
NS'2'
S'C'
tp970
a(dp971
g7
F2.5
saa(lp972
(g948
NS'2'
S'D'
tp973
a(dp974
g7
I1
saa(lp975
(g948
NS'2'
S'E'
tp976
a(dp977
g7
F2.5
saa(lp978
(g948
NS'3'
S'A'
tp979
a(dp980
g7
I5
saa(lp981
(g948
NS'3'
S'B'
tp982
a(dp983
g7
I8
saa(lp984
(g948
NS'3'
S'C'
tp985
a(dp986
g7
I5
saa(lp987
(g948
NS'3'
S'D'
tp988
a(dp989
g7
I2
saa(lp990
(g948
NS'3'
S'E'
tp991
a(dp992
g7
I5
saa(lp993
(g948
NS'4'
S'A'
tp994
a(dp995
g7
I10
saa(lp996
(g948
NS'4'
S'B'
tp997
a(dp998
g7
I16
saa(lp999
(g948
NS'4'
S'C'
tp1000
a(dp1001
g7
I10
saa(lp1002
(g948
NS'4'
S'D'
tp1003
a(dp1004
g7
I4
saa(lp1005
(g948
NS'4'
S'E'
tp1006
a(dp1007
g7
I10
saa(lp1008
(g948
NS'5'
S'A'
tp1009
a(dp1010
g7
I20
saa(lp1011
(g948
NS'5'
S'B'
tp1012
a(dp1013
g7
I32
saa(lp1014
(g948
NS'5'
S'C'
tp1015
a(dp1016
g7
I20
saa(lp1017
(g948
NS'5'
S'D'
tp1018
a(dp1019
g7
I8
saa(lp1020
(g948
NS'5'
S'E'
tp1021
a(dp1022
g7
I20
saa(lp1023
(g948
NS'6'
S'A'
tp1024
a(dp1025
g7
I40
saa(lp1026
(g948
NS'6'
S'B'
tp1027
a(dp1028
g7
I64
saa(lp1029
(g948
NS'6'
S'C'
tp1030
a(dp1031
g7
I40
saa(lp1032
(g948
NS'6'
S'D'
tp1033
a(dp1034
g7
I16
saa(lp1035
(g948
NS'6'
S'E'
tp1036
a(dp1037
g7
I40
saa(lp1038
(g948
NS'7'
S'A'
tp1039
a(dp1040
g7
I80
saa(lp1041
(g948
NS'7'
S'B'
tp1042
a(dp1043
g7
I128
saa(lp1044
(g948
NS'7'
S'C'
tp1045
a(dp1046
g7
I80
saa(lp1047
(g948
NS'7'
S'D'
tp1048
a(dp1049
g7
I32
saa(lp1050
(g948
NS'7'
S'E'
tp1051
a(dp1052
g7
I80
saa(lp1053
(g948
NS'8'
S'A'
tp1054
a(dp1055
g7
I160
saa(lp1056
(g948
NS'8'
S'B'
tp1057
a(dp1058
g7
I256
saa(lp1059
(g948
NS'8'
S'C'
tp1060
a(dp1061
g7
I160
saa(lp1062
(g948
NS'8'
S'D'
tp1063
a(dp1064
g7
I64
saa(lp1065
(g948
NS'8'
S'E'
tp1066
a(dp1067
g7
I160
saa(lp1068
(S'Lightweight Alloy'
p1069
S'Adder'
p1070
S'1'
S'I'
tp1071
a(dp1072
g7
I0
saa(lp1073
(g1069
S'Anaconda'
p1074
S'1'
S'I'
tp1075
a(dp1076
g7
I0
saa(lp1077
(g1069
S'Asp Explorer'
p1078
S'1'
S'I'
tp1079
a(dp1080
g7
I0
saa(lp1081
(g1069
S'Asp Scout'
p1082
S'1'
S'I'
tp1083
a(dp1084
g7
I0
saa(lp1085
(g1069
S'Beluga Liner'
p1086
S'1'
S'I'
tp1087
a(dp1088
g7
I0
saa(lp1089
(g1069
S'Cobra MkIII'
p1090
S'1'
S'I'
tp1091
a(dp1092
g7
I0
saa(lp1093
(g1069
S'Cobra MkIV'
p1094
S'1'
S'I'
tp1095
a(dp1096
g7
I0
saa(lp1097
(g1069
S'Diamondback Explorer'
p1098
S'1'
S'I'
tp1099
a(dp1100
g7
I0
saa(lp1101
(g1069
S'Diamondback Scout'
p1102
S'1'
S'I'
tp1103
a(dp1104
g7
I0
saa(lp1105
(g1069
S'Dolphin'
p1106
S'1'
S'I'
tp1107
a(dp1108
g7
I0
saa(lp1109
(g1069
S'Eagle'
p1110
S'1'
S'I'
tp1111
a(dp1112
g7
I0
saa(lp1113
(g1069
S'Federal Assault Ship'
p1114
S'1'
S'I'
tp1115
a(dp1116
g7
I0
saa(lp1117
(g1069
S'Federal Corvette'
p1118
S'1'
S'I'
tp1119
a(dp1120
g7
I0
saa(lp1121
(g1069
S'Federal Dropship'
p1122
S'1'
S'I'
tp1123
a(dp1124
g7
I0
saa(lp1125
(g1069
S'Federal Gunship'
p1126
S'1'
S'I'
tp1127
a(dp1128
g7
I0
saa(lp1129
(g1069
S'Fer-de-Lance'
p1130
S'1'
S'I'
tp1131
a(dp1132
g7
I0
saa(lp1133
(g1069
S'Hauler'
p1134
S'1'
S'I'
tp1135
a(dp1136
g7
I0
saa(lp1137
(g1069
S'Imperial Clipper'
p1138
S'1'
S'I'
tp1139
a(dp1140
g7
I0
saa(lp1141
(g1069
S'Imperial Courier'
p1142
S'1'
S'I'
tp1143
a(dp1144
g7
I0
saa(lp1145
(g1069
S'Imperial Cutter'
p1146
S'1'
S'I'
tp1147
a(dp1148
g7
I0
saa(lp1149
(g1069
S'Imperial Eagle'
p1150
S'1'
S'I'
tp1151
a(dp1152
g7
I0
saa(lp1153
(g1069
S'Keelback'
p1154
S'1'
S'I'
tp1155
a(dp1156
g7
I0
saa(lp1157
(g1069
S'Orca'
p1158
S'1'
S'I'
tp1159
a(dp1160
g7
I0
saa(lp1161
(g1069
S'Python'
p1162
S'1'
S'I'
tp1163
a(dp1164
g7
I0
saa(lp1165
(g1069
S'Sidewinder'
p1166
S'1'
S'I'
tp1167
a(dp1168
g7
I0
saa(lp1169
(g1069
S'Type-6 Transporter'
p1170
S'1'
S'I'
tp1171
a(dp1172
g7
I0
saa(lp1173
(g1069
S'Type-7 Transporter'
p1174
S'1'
S'I'
tp1175
a(dp1176
g7
I0
saa(lp1177
(g1069
S'Type-9 Heavy'
p1178
S'1'
S'I'
tp1179
a(dp1180
g7
I0
saa(lp1181
(g1069
S'Viper MkIII'
p1182
S'1'
S'I'
tp1183
a(dp1184
g7
I0
saa(lp1185
(g1069
S'Viper MkIV'
p1186
S'1'
S'I'
tp1187
a(dp1188
g7
I0
saa(lp1189
(g1069
S'Vulture'
p1190
S'1'
S'I'
tp1191
a(dp1192
g7
I0
saa(lp1193
(S'Luxury Class Passenger Cabin'
p1194
NS'5'
S'B'
tp1195
a(dp1196
g7
I20
saa(lp1197
(g1194
NS'6'
S'B'
tp1198
a(dp1199
g7
I40
saa(lp1200
(S'Military Grade Composite'
p1201
g1070
S'1'
S'I'
tp1202
a(dp1203
g7
I5
saa(lp1204
(g1201
g1074
S'1'
S'I'
tp1205
a(dp1206
g7
I60
saa(lp1207
(g1201
g1078
S'1'
S'I'
tp1208
a(dp1209
g7
I42
saa(lp1210
(g1201
g1082
S'1'
S'I'
tp1211
a(dp1212
g7
I42
saa(lp1213
(g1201
g1086
S'1'
S'I'
tp1214
a(dp1215
g7
I165
saa(lp1216
(g1201
g1090
S'1'
S'I'
tp1217
a(dp1218
g7
I27
saa(lp1219
(g1201
g1094
S'1'
S'I'
tp1220
a(dp1221
g7
I27
saa(lp1222
(g1201
g1098
S'1'
S'I'
tp1223
a(dp1224
g7
I47
saa(lp1225
(g1201
g1102
S'1'
S'I'
tp1226
a(dp1227
g7
I26
saa(lp1228
(g1201
g1106
S'1'
S'I'
tp1229
a(dp1230
g7
I63
saa(lp1231
(g1201
g1110
S'1'
S'I'
tp1232
a(dp1233
g7
I8
saa(lp1234
(g1201
g1114
S'1'
S'I'
tp1235
a(dp1236
g7
I87
saa(lp1237
(g1201
g1118
S'1'
S'I'
tp1238
a(dp1239
g7
I60
saa(lp1240
(g1201
g1122
S'1'
S'I'
tp1241
a(dp1242
g7
I87
saa(lp1243
(g1201
g1126
S'1'
S'I'
tp1244
a(dp1245
g7
I87
saa(lp1246
(g1201
g1130
S'1'
S'I'
tp1247
a(dp1248
g7
I38
saa(lp1249
(g1201
g1134
S'1'
S'I'
tp1250
a(dp1251
g7
I2
saa(lp1252
(g1201
g1138
S'1'
S'I'
tp1253
a(dp1254
g7
I60
saa(lp1255
(g1201
g1142
S'1'
S'I'
tp1256
a(dp1257
g7
I8
saa(lp1258
(g1201
g1146
S'1'
S'I'
tp1259
a(dp1260
g7
I60
saa(lp1261
(g1201
g1150
S'1'
S'I'
tp1262
a(dp1263
g7
I8
saa(lp1264
(g1201
g1154
S'1'
S'I'
tp1265
a(dp1266
g7
I23
saa(lp1267
(g1201
g1158
S'1'
S'I'
tp1268
a(dp1269
g7
I87
saa(lp1270
(g1201
g1162
S'1'
S'I'
tp1271
a(dp1272
g7
I53
saa(lp1273
(g1201
g1166
S'1'
S'I'
tp1274
a(dp1275
g7
I4
saa(lp1276
(g1201
g1170
S'1'
S'I'
tp1277
a(dp1278
g7
I23
saa(lp1279
(g1201
g1174
S'1'
S'I'
tp1280
a(dp1281
g7
I63
saa(lp1282
(g1201
g1178
S'1'
S'I'
tp1283
a(dp1284
g7
I150
saa(lp1285
(g1201
g1182
S'1'
S'I'
tp1286
a(dp1287
g7
I9
saa(lp1288
(g1201
g1186
S'1'
S'I'
tp1289
a(dp1290
g7
I9
saa(lp1291
(g1201
g1190
S'1'
S'I'
tp1292
a(dp1293
g7
I35
saa(lp1294
(S'Mine Launcher'
p1295
NS'1'
S'I'
tp1296
a(dp1297
g7
I2
saa(lp1298
(g1295
NS'2'
S'I'
tp1299
a(dp1300
g7
I4
saa(lp1301
(S'Mining Lance Beam Laser'
p1302
NS'1'
S'D'
tp1303
a(dp1304
g7
I2
saa(lp1305
(S'Mining Laser'
p1306
NS'1'
S'D'
tp1307
a(dp1308
g7
I2
saa(lp1309
(g1306
NS'2'
S'D'
tp1310
a(dp1311
g7
I2
saa(lp1312
(S'Mirrored Surface Composite'
p1313
g1070
S'1'
S'I'
tp1314
a(dp1315
g7
I5
saa(lp1316
(g1313
g1074
S'1'
S'I'
tp1317
a(dp1318
g7
I60
saa(lp1319
(g1313
g1078
S'1'
S'I'
tp1320
a(dp1321
g7
I42
saa(lp1322
(g1313
g1082
S'1'
S'I'
tp1323
a(dp1324
g7
I42
saa(lp1325
(g1313
g1086
S'1'
S'I'
tp1326
a(dp1327
g7
I165
saa(lp1328
(g1313
g1090
S'1'
S'I'
tp1329
a(dp1330
g7
I27
saa(lp1331
(g1313
g1094
S'1'
S'I'
tp1332
a(dp1333
g7
I27
saa(lp1334
(g1313
g1098
S'1'
S'I'
tp1335
a(dp1336
g7
I26
saa(lp1337
(g1313
g1102
S'1'
S'I'
tp1338
a(dp1339
g7
I26
saa(lp1340
(g1313
g1106
S'1'
S'I'
tp1341
a(dp1342
g7
I63
saa(lp1343
(g1313
g1110
S'1'
S'I'
tp1344
a(dp1345
g7
I8
saa(lp1346
(g1313
g1114
S'1'
S'I'
tp1347
a(dp1348
g7
I87
saa(lp1349
(g1313
g1118
S'1'
S'I'
tp1350
a(dp1351
g7
I60
saa(lp1352
(g1313
g1122
S'1'
S'I'
tp1353
a(dp1354
g7
I87
saa(lp1355
(g1313
g1126
S'1'
S'I'
tp1356
a(dp1357
g7
I87
saa(lp1358
(g1313
g1130
S'1'
S'I'
tp1359
a(dp1360
g7
I38
saa(lp1361
(g1313
g1134
S'1'
S'I'
tp1362
a(dp1363
g7
I2
saa(lp1364
(g1313
g1138
S'1'
S'I'
tp1365
a(dp1366
g7
I60
saa(lp1367
(g1313
g1142
S'1'
S'I'
tp1368
a(dp1369
g7
I8
saa(lp1370
(g1313
g1146
S'1'
S'I'
tp1371
a(dp1372
g7
I60
saa(lp1373
(g1313
g1150
S'1'
S'I'
tp1374
a(dp1375
g7
I8
saa(lp1376
(g1313
g1154
S'1'
S'I'
tp1377
a(dp1378
g7
I23
saa(lp1379
(g1313
g1158
S'1'
S'I'
tp1380
a(dp1381
g7
I87
saa(lp1382
(g1313
g1162
S'1'
S'I'
tp1383
a(dp1384
g7
I53
saa(lp1385
(g1313
g1166
S'1'
S'I'
tp1386
a(dp1387
g7
I4
saa(lp1388
(g1313
g1170
S'1'
S'I'
tp1389
a(dp1390
g7
I23
saa(lp1391
(g1313
g1174
S'1'
S'I'
tp1392
a(dp1393
g7
I63
saa(lp1394
(g1313
g1178
S'1'
S'I'
tp1395
a(dp1396
g7
I150
saa(lp1397
(g1313
g1182
S'1'
S'I'
tp1398
a(dp1399
g7
I9
saa(lp1400
(g1313
g1186
S'1'
S'I'
tp1401
a(dp1402
g7
I9
saa(lp1403
(g1313
g1190
S'1'
S'I'
tp1404
a(dp1405
g7
I35
saa(lp1406
(S'Missile Rack'
p1407
NS'1'
S'B'
tp1408
a(dp1409
g7
I2
saa(lp1410
(g1407
NS'2'
S'B'
tp1411
a(dp1412
g7
I4
saa(lp1413
(S'Module Reinforcement Package'
p1414
NS'1'
S'D'
tp1415
a(dp1416
g7
I1
saa(lp1417
(g1414
NS'1'
S'E'
tp1418
a(dp1419
g7
I2
saa(lp1420
(g1414
NS'2'
S'D'
tp1421
a(dp1422
g7
I2
saa(lp1423
(g1414
NS'2'
S'E'
tp1424
a(dp1425
g7
I4
saa(lp1426
(g1414
NS'3'
S'D'
tp1427
a(dp1428
g7
I4
saa(lp1429
(g1414
NS'3'
S'E'
tp1430
a(dp1431
g7
I8
saa(lp1432
(g1414
NS'4'
S'D'
tp1433
a(dp1434
g7
I8
saa(lp1435
(g1414
NS'4'
S'E'
tp1436
a(dp1437
g7
I16
saa(lp1438
(g1414
NS'5'
S'D'
tp1439
a(dp1440
g7
I16
saa(lp1441
(g1414
NS'5'
S'E'
tp1442
a(dp1443
g7
I32
saa(lp1444
(S'Multi-Cannon'
p1445
NS'1'
S'F'
tp1446
a(dp1447
g7
I2
saa(lp1448
(g1445
NS'1'
S'G'
tp1449
a(dp1450
g7
I2
saa(lp1451
(g1445
NS'2'
S'E'
tp1452
a(dp1453
g7
I4
saa(lp1454
(g1445
NS'2'
S'F'
tp1455
a(dp1456
g7
I4
saa(lp1457
(g1445
NS'3'
S'C'
tp1458
a(dp1459
g7
I8
saa(lp1460
(g1445
NS'4'
S'A'
tp1461
a(dp1462
g7
I16
saa(lp1463
(S'Pacifier Frag-Cannon'
p1464
NS'3'
S'C'
tp1465
a(dp1466
g7
I8
saa(lp1467
(S'Pack-Hound Missile Rack'
p1468
NS'2'
S'B'
tp1469
a(dp1470
g7
I4
saa(lp1471
(S'Planetary Approach Suite'
p1472
NS'1'
S'I'
tp1473
a(dp1474
g7
I0
saa(lp1475
(S'Planetary Vehicle Hangar'
p1476
NS'2'
S'G'
tp1477
a(dp1478
g7
I6
saa(lp1479
(g1476
NS'2'
S'H'
tp1480
a(dp1481
g7
I12
saa(lp1482
(g1476
NS'4'
S'G'
tp1483
a(dp1484
g7
I10
saa(lp1485
(g1476
NS'4'
S'H'
tp1486
a(dp1487
g7
I20
saa(lp1488
(g1476
NS'6'
S'G'
tp1489
a(dp1490
g7
I17
saa(lp1491
(g1476
NS'6'
S'H'
tp1492
a(dp1493
g7
I34
saa(lp1494
(S'Plasma Accelerator'
p1495
NS'2'
S'C'
tp1496
a(dp1497
g7
I4
saa(lp1498
(g1495
NS'3'
S'B'
tp1499
a(dp1500
g7
I8
saa(lp1501
(g1495
NS'4'
S'A'
tp1502
a(dp1503
g7
I16
saa(lp1504
(S'Point Defence'
p1505
NS'0'
S'I'
tp1506
a(dp1507
g7
F0.5
saa(lp1508
(S'Power Distributor'
p1509
NS'1'
S'A'
tp1510
a(dp1511
g7
F1.3
saa(lp1512
(g1509
NS'1'
S'B'
tp1513
a(dp1514
g7
I2
saa(lp1515
(g1509
NS'1'
S'C'
tp1516
a(dp1517
g7
F1.3
saa(lp1518
(g1509
NS'1'
S'D'
tp1519
a(dp1520
g7
F0.5
saa(lp1521
(g1509
NS'1'
S'E'
tp1522
a(dp1523
g7
F1.3
saa(lp1524
(g1509
NS'2'
S'A'
tp1525
a(dp1526
g7
F2.5
saa(lp1527
(g1509
NS'2'
S'B'
tp1528
a(dp1529
g7
I4
saa(lp1530
(g1509
NS'2'
S'C'
tp1531
a(dp1532
g7
F2.5
saa(lp1533
(g1509
NS'2'
S'D'
tp1534
a(dp1535
g7
I1
saa(lp1536
(g1509
NS'2'
S'E'
tp1537
a(dp1538
g7
F2.5
saa(lp1539
(g1509
NS'3'
S'A'
tp1540
a(dp1541
g7
I5
saa(lp1542
(g1509
NS'3'
S'B'
tp1543
a(dp1544
g7
I8
saa(lp1545
(g1509
NS'3'
S'C'
tp1546
a(dp1547
g7
I5
saa(lp1548
(g1509
NS'3'
S'D'
tp1549
a(dp1550
g7
I2
saa(lp1551
(g1509
NS'3'
S'E'
tp1552
a(dp1553
g7
I5
saa(lp1554
(g1509
NS'4'
S'A'
tp1555
a(dp1556
g7
I10
saa(lp1557
(g1509
NS'4'
S'B'
tp1558
a(dp1559
g7
I16
saa(lp1560
(g1509
NS'4'
S'C'
tp1561
a(dp1562
g7
I10
saa(lp1563
(g1509
NS'4'
S'D'
tp1564
a(dp1565
g7
I4
saa(lp1566
(g1509
NS'4'
S'E'
tp1567
a(dp1568
g7
I10
saa(lp1569
(g1509
NS'5'
S'A'
tp1570
a(dp1571
g7
I20
saa(lp1572
(g1509
NS'5'
S'B'
tp1573
a(dp1574
g7
I32
saa(lp1575
(g1509
NS'5'
S'C'
tp1576
a(dp1577
g7
I20
saa(lp1578
(g1509
NS'5'
S'D'
tp1579
a(dp1580
g7
I8
saa(lp1581
(g1509
NS'5'
S'E'
tp1582
a(dp1583
g7
I20
saa(lp1584
(g1509
NS'6'
S'A'
tp1585
a(dp1586
g7
I40
saa(lp1587
(g1509
NS'6'
S'B'
tp1588
a(dp1589
g7
I64
saa(lp1590
(g1509
NS'6'
S'C'
tp1591
a(dp1592
g7
I40
saa(lp1593
(g1509
NS'6'
S'D'
tp1594
a(dp1595
g7
I16
saa(lp1596
(g1509
NS'6'
S'E'
tp1597
a(dp1598
g7
I40
saa(lp1599
(g1509
NS'7'
S'A'
tp1600
a(dp1601
g7
I80
saa(lp1602
(g1509
NS'7'
S'B'
tp1603
a(dp1604
g7
I128
saa(lp1605
(g1509
NS'7'
S'C'
tp1606
a(dp1607
g7
I80
saa(lp1608
(g1509
NS'7'
S'D'
tp1609
a(dp1610
g7
I32
saa(lp1611
(g1509
NS'7'
S'E'
tp1612
a(dp1613
g7
I80
saa(lp1614
(g1509
NS'8'
S'A'
tp1615
a(dp1616
g7
I160
saa(lp1617
(g1509
NS'8'
S'B'
tp1618
a(dp1619
g7
I256
saa(lp1620
(g1509
NS'8'
S'C'
tp1621
a(dp1622
g7
I160
saa(lp1623
(g1509
NS'8'
S'D'
tp1624
a(dp1625
g7
I64
saa(lp1626
(g1509
NS'8'
S'E'
tp1627
a(dp1628
g7
I160
saa(lp1629
(S'Power Plant'
p1630
NS'2'
S'A'
tp1631
a(dp1632
g7
F1.3
saa(lp1633
(g1630
NS'2'
S'B'
tp1634
a(dp1635
g7
I2
saa(lp1636
(g1630
NS'2'
S'C'
tp1637
a(dp1638
g7
F1.3
saa(lp1639
(g1630
NS'2'
S'D'
tp1640
a(dp1641
g7
I1
saa(lp1642
(g1630
NS'2'
S'E'
tp1643
a(dp1644
g7
F2.5
saa(lp1645
(g1630
NS'3'
S'A'
tp1646
a(dp1647
g7
F2.5
saa(lp1648
(g1630
NS'3'
S'B'
tp1649
a(dp1650
g7
I4
saa(lp1651
(g1630
NS'3'
S'C'
tp1652
a(dp1653
g7
F2.5
saa(lp1654
(g1630
NS'3'
S'D'
tp1655
a(dp1656
g7
I2
saa(lp1657
(g1630
NS'3'
S'E'
tp1658
a(dp1659
g7
I5
saa(lp1660
(g1630
NS'4'
S'A'
tp1661
a(dp1662
g7
I5
saa(lp1663
(g1630
NS'4'
S'B'
tp1664
a(dp1665
g7
I8
saa(lp1666
(g1630
NS'4'
S'C'
tp1667
a(dp1668
g7
I5
saa(lp1669
(g1630
NS'4'
S'D'
tp1670
a(dp1671
g7
I4
saa(lp1672
(g1630
NS'4'
S'E'
tp1673
a(dp1674
g7
I10
saa(lp1675
(g1630
NS'5'
S'A'
tp1676
a(dp1677
g7
I10
saa(lp1678
(g1630
NS'5'
S'B'
tp1679
a(dp1680
g7
I16
saa(lp1681
(g1630
NS'5'
S'C'
tp1682
a(dp1683
g7
I10
saa(lp1684
(g1630
NS'5'
S'D'
tp1685
a(dp1686
g7
I8
saa(lp1687
(g1630
NS'5'
S'E'
tp1688
a(dp1689
g7
I20
saa(lp1690
(g1630
NS'6'
S'A'
tp1691
a(dp1692
g7
I20
saa(lp1693
(g1630
NS'6'
S'B'
tp1694
a(dp1695
g7
I32
saa(lp1696
(g1630
NS'6'
S'C'
tp1697
a(dp1698
g7
I20
saa(lp1699
(g1630
NS'6'
S'D'
tp1700
a(dp1701
g7
I16
saa(lp1702
(g1630
NS'6'
S'E'
tp1703
a(dp1704
g7
I40
saa(lp1705
(g1630
NS'7'
S'A'
tp1706
a(dp1707
g7
I40
saa(lp1708
(g1630
NS'7'
S'B'
tp1709
a(dp1710
g7
I64
saa(lp1711
(g1630
NS'7'
S'C'
tp1712
a(dp1713
g7
I40
saa(lp1714
(g1630
NS'7'
S'D'
tp1715
a(dp1716
g7
I32
saa(lp1717
(g1630
NS'7'
S'E'
tp1718
a(dp1719
g7
I80
saa(lp1720
(g1630
NS'8'
S'A'
tp1721
a(dp1722
g7
I80
saa(lp1723
(g1630
NS'8'
S'B'
tp1724
a(dp1725
g7
I128
saa(lp1726
(g1630
NS'8'
S'C'
tp1727
a(dp1728
g7
I80
saa(lp1729
(g1630
NS'8'
S'D'
tp1730
a(dp1731
g7
I64
saa(lp1732
(g1630
NS'8'
S'E'
tp1733
a(dp1734
g7
I160
saa(lp1735
(S'Prismatic Shield Generator'
p1736
NS'1'
S'A'
tp1737
a(dp1738
g7
F2.5
saa(lp1739
(g1736
NS'2'
S'A'
tp1740
a(dp1741
g7
I5
saa(lp1742
(g1736
NS'3'
S'A'
tp1743
a(dp1744
g7
I10
saa(lp1745
(g1736
NS'4'
S'A'
tp1746
a(dp1747
g7
I20
saa(lp1748
(g1736
NS'5'
S'A'
tp1749
a(dp1750
g7
I40
saa(lp1751
(g1736
NS'6'
S'A'
tp1752
a(dp1753
g7
I80
saa(lp1754
(g1736
NS'7'
S'A'
tp1755
a(dp1756
g7
I160
saa(lp1757
(g1736
NS'8'
S'A'
tp1758
a(dp1759
g7
I320
saa(lp1760
(S'Prospector Limpet Controller'
p1761
NS'1'
S'A'
tp1762
a(dp1763
g7
F1.3
saa(lp1764
(g1761
NS'1'
S'B'
tp1765
a(dp1766
g7
I2
saa(lp1767
(g1761
NS'1'
S'C'
tp1768
a(dp1769
g7
F1.3
saa(lp1770
(g1761
NS'1'
S'D'
tp1771
a(dp1772
g7
F0.5
saa(lp1773
(g1761
NS'1'
S'E'
tp1774
a(dp1775
g7
F1.3
saa(lp1776
(g1761
NS'3'
S'A'
tp1777
a(dp1778
g7
I5
saa(lp1779
(g1761
NS'3'
S'B'
tp1780
a(dp1781
g7
I8
saa(lp1782
(g1761
NS'3'
S'C'
tp1783
a(dp1784
g7
I5
saa(lp1785
(g1761
NS'3'
S'D'
tp1786
a(dp1787
g7
I2
saa(lp1788
(g1761
NS'3'
S'E'
tp1789
a(dp1790
g7
I5
saa(lp1791
(g1761
NS'5'
S'A'
tp1792
a(dp1793
g7
I20
saa(lp1794
(g1761
NS'5'
S'B'
tp1795
a(dp1796
g7
I32
saa(lp1797
(g1761
NS'5'
S'C'
tp1798
a(dp1799
g7
I20
saa(lp1800
(g1761
NS'5'
S'D'
tp1801
a(dp1802
g7
I8
saa(lp1803
(g1761
NS'5'
S'E'
tp1804
a(dp1805
g7
I20
saa(lp1806
(g1761
NS'7'
S'A'
tp1807
a(dp1808
g7
I80
saa(lp1809
(g1761
NS'7'
S'B'
tp1810
a(dp1811
g7
I128
saa(lp1812
(g1761
NS'7'
S'C'
tp1813
a(dp1814
g7
I80
saa(lp1815
(g1761
NS'7'
S'D'
tp1816
a(dp1817
g7
I32
saa(lp1818
(g1761
NS'7'
S'E'
tp1819
a(dp1820
g7
I80
saa(lp1821
(S'Pulse Disruptor Laser'
p1822
NS'2'
S'E'
tp1823
a(dp1824
g7
I4
saa(lp1825
(S'Pulse Laser'
p1826
NS'1'
S'F'
tp1827
a(dp1828
g7
I2
saa(lp1829
(g1826
NS'1'
S'G'
tp1830
a(dp1831
g7
I2
saa(lp1832
(g1826
NS'2'
S'E'
tp1833
a(dp1834
g7
I4
saa(lp1835
(g1826
NS'2'
S'F'
tp1836
a(dp1837
g7
I4
saa(lp1838
(g1826
NS'3'
S'D'
tp1839
a(dp1840
g7
I8
saa(lp1841
(g1826
NS'3'
S'E'
tp1842
a(dp1843
g7
I8
saa(lp1844
(g1826
NS'3'
S'F'
tp1845
a(dp1846
g7
I8
saa(lp1847
(g1826
NS'4'
S'A'
tp1848
a(dp1849
g7
I16
saa(lp1850
(S'Rail Gun'
p1851
NS'1'
S'D'
tp1852
a(dp1853
g7
I2
saa(lp1854
(g1851
NS'2'
S'B'
tp1855
a(dp1856
g7
I4
saa(lp1857
(S'Reactive Surface Composite'
p1858
g1070
S'1'
S'I'
tp1859
a(dp1860
g7
I5
saa(lp1861
(g1858
g1074
S'1'
S'I'
tp1862
a(dp1863
g7
I60
saa(lp1864
(g1858
g1078
S'1'
S'I'
tp1865
a(dp1866
g7
I42
saa(lp1867
(g1858
g1082
S'1'
S'I'
tp1868
a(dp1869
g7
I42
saa(lp1870
(g1858
g1086
S'1'
S'I'
tp1871
a(dp1872
g7
I165
saa(lp1873
(g1858
g1090
S'1'
S'I'
tp1874
a(dp1875
g7
I27
saa(lp1876
(g1858
g1094
S'1'
S'I'
tp1877
a(dp1878
g7
I27
saa(lp1879
(g1858
g1098
S'1'
S'I'
tp1880
a(dp1881
g7
I47
saa(lp1882
(g1858
g1102
S'1'
S'I'
tp1883
a(dp1884
g7
I26
saa(lp1885
(g1858
g1106
S'1'
S'I'
tp1886
a(dp1887
g7
I63
saa(lp1888
(g1858
g1110
S'1'
S'I'
tp1889
a(dp1890
g7
I8
saa(lp1891
(g1858
g1114
S'1'
S'I'
tp1892
a(dp1893
g7
I87
saa(lp1894
(g1858
g1118
S'1'
S'I'
tp1895
a(dp1896
g7
I60
saa(lp1897
(g1858
g1122
S'1'
S'I'
tp1898
a(dp1899
g7
I87
saa(lp1900
(g1858
g1126
S'1'
S'I'
tp1901
a(dp1902
g7
I87
saa(lp1903
(g1858
g1130
S'1'
S'I'
tp1904
a(dp1905
g7
I38
saa(lp1906
(g1858
g1134
S'1'
S'I'
tp1907
a(dp1908
g7
I2
saa(lp1909
(g1858
g1138
S'1'
S'I'
tp1910
a(dp1911
g7
I60
saa(lp1912
(g1858
g1142
S'1'
S'I'
tp1913
a(dp1914
g7
I8
saa(lp1915
(g1858
g1146
S'1'
S'I'
tp1916
a(dp1917
g7
I60
saa(lp1918
(g1858
g1150
S'1'
S'I'
tp1919
a(dp1920
g7
I8
saa(lp1921
(g1858
g1154
S'1'
S'I'
tp1922
a(dp1923
g7
I23
saa(lp1924
(g1858
g1158
S'1'
S'I'
tp1925
a(dp1926
g7
I87
saa(lp1927
(g1858
g1162
S'1'
S'I'
tp1928
a(dp1929
g7
I53
saa(lp1930
(g1858
g1166
S'1'
S'I'
tp1931
a(dp1932
g7
I4
saa(lp1933
(g1858
g1170
S'1'
S'I'
tp1934
a(dp1935
g7
I23
saa(lp1936
(g1858
g1174
S'1'
S'I'
tp1937
a(dp1938
g7
I63
saa(lp1939
(g1858
g1178
S'1'
S'I'
tp1940
a(dp1941
g7
I150
saa(lp1942
(g1858
g1182
S'1'
S'I'
tp1943
a(dp1944
g7
I9
saa(lp1945
(g1858
g1186
S'1'
S'I'
tp1946
a(dp1947
g7
I9
saa(lp1948
(g1858
g1190
S'1'
S'I'
tp1949
a(dp1950
g7
I35
saa(lp1951
(S'Refinery'
p1952
NS'1'
S'A'
tp1953
a(dp1954
g7
I0
saa(lp1955
(g1952
NS'1'
S'B'
tp1956
a(dp1957
g7
I0
saa(lp1958
(g1952
NS'1'
S'C'
tp1959
a(dp1960
g7
I0
saa(lp1961
(g1952
NS'1'
S'D'
tp1962
a(dp1963
g7
I0
saa(lp1964
(g1952
NS'1'
S'E'
tp1965
a(dp1966
g7
I0
saa(lp1967
(g1952
NS'2'
S'A'
tp1968
a(dp1969
g7
I0
saa(lp1970
(g1952
NS'2'
S'B'
tp1971
a(dp1972
g7
I0
saa(lp1973
(g1952
NS'2'
S'C'
tp1974
a(dp1975
g7
I0
saa(lp1976
(g1952
NS'2'
S'D'
tp1977
a(dp1978
g7
I0
saa(lp1979
(g1952
NS'2'
S'E'
tp1980
a(dp1981
g7
I0
saa(lp1982
(g1952
NS'3'
S'A'
tp1983
a(dp1984
g7
I0
saa(lp1985
(g1952
NS'3'
S'B'
tp1986
a(dp1987
g7
I0
saa(lp1988
(g1952
NS'3'
S'C'
tp1989
a(dp1990
g7
I0
saa(lp1991
(g1952
NS'3'
S'D'
tp1992
a(dp1993
g7
I0
saa(lp1994
(g1952
NS'3'
S'E'
tp1995
a(dp1996
g7
I0
saa(lp1997
(g1952
NS'4'
S'A'
tp1998
a(dp1999
g7
I0
saa(lp2000
(g1952
NS'4'
S'B'
tp2001
a(dp2002
g7
I0
saa(lp2003
(g1952
NS'4'
S'C'
tp2004
a(dp2005
g7
I0
saa(lp2006
(g1952
NS'4'
S'D'
tp2007
a(dp2008
g7
I0
saa(lp2009
(g1952
NS'4'
S'E'
tp2010
a(dp2011
g7
I0
saa(lp2012
(S'Reinforced Alloy'
p2013
g1070
S'1'
S'I'
tp2014
a(dp2015
g7
I3
saa(lp2016
(g2013
g1074
S'1'
S'I'
tp2017
a(dp2018
g7
I30
saa(lp2019
(g2013
g1078
S'1'
S'I'
tp2020
a(dp2021
g7
I21
saa(lp2022
(g2013
g1082
S'1'
S'I'
tp2023
a(dp2024
g7
I21
saa(lp2025
(g2013
g1086
S'1'
S'I'
tp2026
a(dp2027
g7
I83
saa(lp2028
(g2013
g1090
S'1'
S'I'
tp2029
a(dp2030
g7
I14
saa(lp2031
(g2013
g1094
S'1'
S'I'
tp2032
a(dp2033
g7
I14
saa(lp2034
(g2013
g1098
S'1'
S'I'
tp2035
a(dp2036
g7
I23
saa(lp2037
(g2013
g1102
S'1'
S'I'
tp2038
a(dp2039
g7
I13
saa(lp2040
(g2013
g1106
S'1'
S'I'
tp2041
a(dp2042
g7
I32
saa(lp2043
(g2013
g1110
S'1'
S'I'
tp2044
a(dp2045
g7
I4
saa(lp2046
(g2013
g1114
S'1'
S'I'
tp2047
a(dp2048
g7
I44
saa(lp2049
(g2013
g1118
S'1'
S'I'
tp2050
a(dp2051
g7
I30
saa(lp2052
(g2013
g1122
S'1'
S'I'
tp2053
a(dp2054
g7
I44
saa(lp2055
(g2013
g1126
S'1'
S'I'
tp2056
a(dp2057
g7
I44
saa(lp2058
(g2013
g1130
S'1'
S'I'
tp2059
a(dp2060
g7
I19
saa(lp2061
(g2013
g1134
S'1'
S'I'
tp2062
a(dp2063
g7
I1
saa(lp2064
(g2013
g1138
S'1'
S'I'
tp2065
a(dp2066
g7
I30
saa(lp2067
(g2013
g1142
S'1'
S'I'
tp2068
a(dp2069
g7
I4
saa(lp2070
(g2013
g1146
S'1'
S'I'
tp2071
a(dp2072
g7
I30
saa(lp2073
(g2013
g1150
S'1'
S'I'
tp2074
a(dp2075
g7
I4
saa(lp2076
(g2013
g1154
S'1'
S'I'
tp2077
a(dp2078
g7
I12
saa(lp2079
(g2013
g1158
S'1'
S'I'
tp2080
a(dp2081
g7
I21
saa(lp2082
(g2013
g1162
S'1'
S'I'
tp2083
a(dp2084
g7
I26
saa(lp2085
(g2013
g1166
S'1'
S'I'
tp2086
a(dp2087
g7
I2
saa(lp2088
(g2013
g1170
S'1'
S'I'
tp2089
a(dp2090
g7
I12
saa(lp2091
(g2013
g1174
S'1'
S'I'
tp2092
a(dp2093
g7
I32
saa(lp2094
(g2013
g1178
S'1'
S'I'
tp2095
a(dp2096
g7
I75
saa(lp2097
(g2013
g1182
S'1'
S'I'
tp2098
a(dp2099
g7
I5
saa(lp2100
(g2013
g1186
S'1'
S'I'
tp2101
a(dp2102
g7
I5
saa(lp2103
(g2013
g1190
S'1'
S'I'
tp2104
a(dp2105
g7
I17
saa(lp2106
(S'Repair Limpet Controller'
p2107
NS'1'
S'A'
tp2108
ag1763
aa(lp2109
(g2107
NS'1'
S'B'
tp2110
ag1766
aa(lp2111
(g2107
NS'1'
S'C'
tp2112
ag1769
aa(lp2113
(g2107
NS'1'
S'D'
tp2114
ag1772
aa(lp2115
(g2107
NS'1'
S'E'
tp2116
ag1775
aa(lp2117
(g2107
NS'3'
S'A'
tp2118
ag1778
aa(lp2119
(g2107
NS'3'
S'B'
tp2120
ag1781
aa(lp2121
(g2107
NS'3'
S'C'
tp2122
ag1784
aa(lp2123
(g2107
NS'3'
S'D'
tp2124
ag1787
aa(lp2125
(g2107
NS'3'
S'E'
tp2126
ag1790
aa(lp2127
(g2107
NS'5'
S'A'
tp2128
ag1793
aa(lp2129
(g2107
NS'5'
S'B'
tp2130
ag1796
aa(lp2131
(g2107
NS'5'
S'C'
tp2132
ag1799
aa(lp2133
(g2107
NS'5'
S'D'
tp2134
ag1802
aa(lp2135
(g2107
NS'5'
S'E'
tp2136
ag1805
aa(lp2137
(g2107
NS'7'
S'A'
tp2138
ag1808
aa(lp2139
(g2107
NS'7'
S'B'
tp2140
ag1811
aa(lp2141
(g2107
NS'7'
S'C'
tp2142
ag1814
aa(lp2143
(g2107
NS'7'
S'D'
tp2144
ag1817
aa(lp2145
(g2107
NS'7'
S'E'
tp2146
ag1820
aa(lp2147
(S'Research Limpet Controller'
p2148
NS'1'
S'A'
tp2149
ag1763
aa(lp2150
(g2148
NS'1'
S'B'
tp2151
ag1766
aa(lp2152
(g2148
NS'1'
S'C'
tp2153
ag1769
aa(lp2154
(g2148
NS'1'
S'D'
tp2155
ag1772
aa(lp2156
(g2148
NS'1'
S'E'
tp2157
ag1775
aa(lp2158
(g2148
NS'3'
S'A'
tp2159
ag1778
aa(lp2160
(g2148
NS'3'
S'B'
tp2161
ag1781
aa(lp2162
(g2148
NS'3'
S'C'
tp2163
ag1784
aa(lp2164
(g2148
NS'3'
S'D'
tp2165
ag1787
aa(lp2166
(g2148
NS'3'
S'E'
tp2167
ag1790
aa(lp2168
(g2148
NS'5'
S'A'
tp2169
ag1793
aa(lp2170
(g2148
NS'5'
S'B'
tp2171
ag1796
aa(lp2172
(g2148
NS'5'
S'C'
tp2173
ag1799
aa(lp2174
(g2148
NS'5'
S'D'
tp2175
ag1802
aa(lp2176
(g2148
NS'5'
S'E'
tp2177
ag1805
aa(lp2178
(g2148
NS'7'
S'A'
tp2179
ag1808
aa(lp2180
(g2148
NS'7'
S'B'
tp2181
ag1811
aa(lp2182
(g2148
NS'7'
S'C'
tp2183
ag1814
aa(lp2184
(g2148
NS'7'
S'D'
tp2185
ag1817
aa(lp2186
(g2148
NS'7'
S'E'
tp2187
ag1820
aa(lp2188
(S'Retributor Beam Laser'
p2189
NS'1'
S'E'
tp2190
a(dp2191
g7
I2
saa(lp2192
(S'Rocket Propelled FSD Disruptor'
p2193
NS'2'
S'B'
tp2194
a(dp2195
g7
I4
saa(lp2196
(S'Sensors'
p2197
NS'1'
S'A'
tp2198
a(dp2199
g7
F1.3
saa(lp2200
(g2197
NS'1'
S'B'
tp2201
a(dp2202
g7
I2
saa(lp2203
(g2197
NS'1'
S'C'
tp2204
a(dp2205
g7
F1.3
saa(lp2206
(g2197
NS'1'
S'D'
tp2207
a(dp2208
g7
F0.5
saa(lp2209
(g2197
NS'1'
S'E'
tp2210
a(dp2211
g7
F1.3
saa(lp2212
(g2197
NS'2'
S'A'
tp2213
a(dp2214
g7
F2.5
saa(lp2215
(g2197
NS'2'
S'B'
tp2216
a(dp2217
g7
I4
saa(lp2218
(g2197
NS'2'
S'C'
tp2219
a(dp2220
g7
F2.5
saa(lp2221
(g2197
NS'2'
S'D'
tp2222
a(dp2223
g7
I1
saa(lp2224
(g2197
NS'2'
S'E'
tp2225
a(dp2226
g7
F2.5
saa(lp2227
(g2197
NS'3'
S'A'
tp2228
a(dp2229
g7
I5
saa(lp2230
(g2197
NS'3'
S'B'
tp2231
a(dp2232
g7
I8
saa(lp2233
(g2197
NS'3'
S'C'
tp2234
a(dp2235
g7
I5
saa(lp2236
(g2197
NS'3'
S'D'
tp2237
a(dp2238
g7
I2
saa(lp2239
(g2197
NS'3'
S'E'
tp2240
a(dp2241
g7
I5
saa(lp2242
(g2197
NS'4'
S'A'
tp2243
a(dp2244
g7
I10
saa(lp2245
(g2197
NS'4'
S'B'
tp2246
a(dp2247
g7
I16
saa(lp2248
(g2197
NS'4'
S'C'
tp2249
a(dp2250
g7
I10
saa(lp2251
(g2197
NS'4'
S'D'
tp2252
a(dp2253
g7
I4
saa(lp2254
(g2197
NS'4'
S'E'
tp2255
a(dp2256
g7
I10
saa(lp2257
(g2197
NS'5'
S'A'
tp2258
a(dp2259
g7
I20
saa(lp2260
(g2197
NS'5'
S'B'
tp2261
a(dp2262
g7
I32
saa(lp2263
(g2197
NS'5'
S'C'
tp2264
a(dp2265
g7
I20
saa(lp2266
(g2197
NS'5'
S'D'
tp2267
a(dp2268
g7
I8
saa(lp2269
(g2197
NS'5'
S'E'
tp2270
a(dp2271
g7
I20
saa(lp2272
(g2197
NS'6'
S'A'
tp2273
a(dp2274
g7
I40
saa(lp2275
(g2197
NS'6'
S'B'
tp2276
a(dp2277
g7
I64
saa(lp2278
(g2197
NS'6'
S'C'
tp2279
a(dp2280
g7
I40
saa(lp2281
(g2197
NS'6'
S'D'
tp2282
a(dp2283
g7
I16
saa(lp2284
(g2197
NS'6'
S'E'
tp2285
a(dp2286
g7
I40
saa(lp2287
(g2197
NS'7'
S'A'
tp2288
a(dp2289
g7
I80
saa(lp2290
(g2197
NS'7'
S'B'
tp2291
a(dp2292
g7
I128
saa(lp2293
(g2197
NS'7'
S'C'
tp2294
a(dp2295
g7
I80
saa(lp2296
(g2197
NS'7'
S'D'
tp2297
a(dp2298
g7
I32
saa(lp2299
(g2197
NS'7'
S'E'
tp2300
a(dp2301
g7
I80
saa(lp2302
(g2197
NS'8'
S'A'
tp2303
a(dp2304
g7
I160
saa(lp2305
(g2197
NS'8'
S'B'
tp2306
a(dp2307
g7
I256
saa(lp2308
(g2197
NS'8'
S'C'
tp2309
a(dp2310
g7
I160
saa(lp2311
(g2197
NS'8'
S'D'
tp2312
a(dp2313
g7
I64
saa(lp2314
(g2197
NS'8'
S'E'
tp2315
a(dp2316
g7
I160
saa(lp2317
(S'Shield Booster'
p2318
NS'0'
S'A'
tp2319
a(dp2320
g7
F3.5
saa(lp2321
(g2318
NS'0'
S'B'
tp2322
a(dp2323
g7
I3
saa(lp2324
(g2318
NS'0'
S'C'
tp2325
a(dp2326
g7
I2
saa(lp2327
(g2318
NS'0'
S'D'
tp2328
a(dp2329
g7
I1
saa(lp2330
(g2318
NS'0'
S'E'
tp2331
a(dp2332
g7
F0.5
saa(lp2333
(S'Shield Cell Bank'
p2334
NS'1'
S'A'
tp2335
a(dp2336
g7
F1.3
saa(lp2337
(g2334
NS'1'
S'B'
tp2338
a(dp2339
g7
I2
saa(lp2340
(g2334
NS'1'
S'C'
tp2341
a(dp2342
g7
F1.3
saa(lp2343
(g2334
NS'1'
S'D'
tp2344
a(dp2345
g7
F0.5
saa(lp2346
(g2334
NS'1'
S'E'
tp2347
a(dp2348
g7
F1.3
saa(lp2349
(g2334
NS'2'
S'A'
tp2350
a(dp2351
g7
F2.5
saa(lp2352
(g2334
NS'2'
S'B'
tp2353
a(dp2354
g7
I4
saa(lp2355
(g2334
NS'2'
S'C'
tp2356
a(dp2357
g7
F2.5
saa(lp2358
(g2334
NS'2'
S'D'
tp2359
a(dp2360
g7
I1
saa(lp2361
(g2334
NS'2'
S'E'
tp2362
a(dp2363
g7
F2.5
saa(lp2364
(g2334
NS'3'
S'A'
tp2365
a(dp2366
g7
I5
saa(lp2367
(g2334
NS'3'
S'B'
tp2368
a(dp2369
g7
I8
saa(lp2370
(g2334
NS'3'
S'C'
tp2371
a(dp2372
g7
I5
saa(lp2373
(g2334
NS'3'
S'D'
tp2374
a(dp2375
g7
I2
saa(lp2376
(g2334
NS'3'
S'E'
tp2377
a(dp2378
g7
I5
saa(lp2379
(g2334
NS'4'
S'A'
tp2380
a(dp2381
g7
I10
saa(lp2382
(g2334
NS'4'
S'B'
tp2383
a(dp2384
g7
I16
saa(lp2385
(g2334
NS'4'
S'C'
tp2386
a(dp2387
g7
I10
saa(lp2388
(g2334
NS'4'
S'D'
tp2389
a(dp2390
g7
I4
saa(lp2391
(g2334
NS'4'
S'E'
tp2392
a(dp2393
g7
I10
saa(lp2394
(g2334
NS'5'
S'A'
tp2395
a(dp2396
g7
I20
saa(lp2397
(g2334
NS'5'
S'B'
tp2398
a(dp2399
g7
I32
saa(lp2400
(g2334
NS'5'
S'C'
tp2401
a(dp2402
g7
I20
saa(lp2403
(g2334
NS'5'
S'D'
tp2404
a(dp2405
g7
I8
saa(lp2406
(g2334
NS'5'
S'E'
tp2407
a(dp2408
g7
I20
saa(lp2409
(g2334
NS'6'
S'A'
tp2410
a(dp2411
g7
I40
saa(lp2412
(g2334
NS'6'
S'B'
tp2413
a(dp2414
g7
I64
saa(lp2415
(g2334
NS'6'
S'C'
tp2416
a(dp2417
g7
I40
saa(lp2418
(g2334
NS'6'
S'D'
tp2419
a(dp2420
g7
I16
saa(lp2421
(g2334
NS'6'
S'E'
tp2422
a(dp2423
g7
I40
saa(lp2424
(g2334
NS'7'
S'A'
tp2425
a(dp2426
g7
I80
saa(lp2427
(g2334
NS'7'
S'B'
tp2428
a(dp2429
g7
I128
saa(lp2430
(g2334
NS'7'
S'C'
tp2431
a(dp2432
g7
I80
saa(lp2433
(g2334
NS'7'
S'D'
tp2434
a(dp2435
g7
I32
saa(lp2436
(g2334
NS'7'
S'E'
tp2437
a(dp2438
g7
I80
saa(lp2439
(g2334
NS'8'
S'A'
tp2440
a(dp2441
g7
I160
saa(lp2442
(g2334
NS'8'
S'B'
tp2443
a(dp2444
g7
I256
saa(lp2445
(g2334
NS'8'
S'C'
tp2446
a(dp2447
g7
I160
saa(lp2448
(g2334
NS'8'
S'D'
tp2449
a(dp2450
g7
I64
saa(lp2451
(g2334
NS'8'
S'E'
tp2452
a(dp2453
g7
I160
saa(lp2454
(S'Shield Generator'
p2455
NS'1'
S'A'
tp2456
a(dp2457
g7
F1.3
saa(lp2458
(g2455
NS'2'
S'A'
tp2459
a(dp2460
g7
F2.5
saa(lp2461
(g2455
NS'2'
S'B'
tp2462
a(dp2463
g7
I4
saa(lp2464
(g2455
NS'2'
S'C'
tp2465
a(dp2466
g7
F2.5
saa(lp2467
(g2455
NS'2'
S'D'
tp2468
a(dp2469
g7
I1
saa(lp2470
(g2455
NS'2'
S'E'
tp2471
a(dp2472
g7
F2.5
saa(lp2473
(g2455
NS'3'
S'A'
tp2474
a(dp2475
g7
I5
saa(lp2476
(g2455
NS'3'
S'B'
tp2477
a(dp2478
g7
I8
saa(lp2479
(g2455
NS'3'
S'C'
tp2480
a(dp2481
g7
I5
saa(lp2482
(g2455
NS'3'
S'D'
tp2483
a(dp2484
g7
I2
saa(lp2485
(g2455
NS'3'
S'E'
tp2486
a(dp2487
g7
I5
saa(lp2488
(g2455
NS'4'
S'A'
tp2489
a(dp2490
g7
I10
saa(lp2491
(g2455
NS'4'
S'B'
tp2492
a(dp2493
g7
I16
saa(lp2494
(g2455
NS'4'
S'C'
tp2495
a(dp2496
g7
I10
saa(lp2497
(g2455
NS'4'
S'D'
tp2498
a(dp2499
g7
I4
saa(lp2500
(g2455
NS'4'
S'E'
tp2501
a(dp2502
g7
I10
saa(lp2503
(g2455
NS'5'
S'A'
tp2504
a(dp2505
g7
I20
saa(lp2506
(g2455
NS'5'
S'B'
tp2507
a(dp2508
g7
I32
saa(lp2509
(g2455
NS'5'
S'C'
tp2510
a(dp2511
g7
I20
saa(lp2512
(g2455
NS'5'
S'D'
tp2513
a(dp2514
g7
I8
saa(lp2515
(g2455
NS'5'
S'E'
tp2516
a(dp2517
g7
I20
saa(lp2518
(g2455
NS'6'
S'A'
tp2519
a(dp2520
g7
I40
saa(lp2521
(g2455
NS'6'
S'B'
tp2522
a(dp2523
g7
I64
saa(lp2524
(g2455
NS'6'
S'C'
tp2525
a(dp2526
g7
I40
saa(lp2527
(g2455
NS'6'
S'D'
tp2528
a(dp2529
g7
I16
saa(lp2530
(g2455
NS'6'
S'E'
tp2531
a(dp2532
g7
I40
saa(lp2533
(g2455
NS'7'
S'A'
tp2534
a(dp2535
g7
I80
saa(lp2536
(g2455
NS'7'
S'B'
tp2537
a(dp2538
g7
I128
saa(lp2539
(g2455
NS'7'
S'C'
tp2540
a(dp2541
g7
I80
saa(lp2542
(g2455
NS'7'
S'D'
tp2543
a(dp2544
g7
I32
saa(lp2545
(g2455
NS'7'
S'E'
tp2546
a(dp2547
g7
I80
saa(lp2548
(g2455
NS'8'
S'A'
tp2549
a(dp2550
g7
I160
saa(lp2551
(g2455
NS'8'
S'B'
tp2552
a(dp2553
g7
I256
saa(lp2554
(g2455
NS'8'
S'C'
tp2555
a(dp2556
g7
I160
saa(lp2557
(g2455
NS'8'
S'D'
tp2558
a(dp2559
g7
I64
saa(lp2560
(g2455
NS'8'
S'E'
tp2561
a(dp2562
g7
I160
saa(lp2563
(S'Shock Mine Launcher'
p2564
NS'1'
S'I'
tp2565
a(dp2566
g7
I2
saa(lp2567
(S'Standard Docking Computer'
p2568
NS'1'
S'E'
tp2569
a(dp2570
g7
I0
saa(lp2571
(S'Thrusters'
p2572
NS'2'
S'A'
tp2573
a(dp2574
g7
F2.5
saa(lp2575
(g2572
NS'2'
S'B'
tp2576
a(dp2577
g7
I4
saa(lp2578
(g2572
NS'2'
S'C'
tp2579
a(dp2580
g7
F2.5
saa(lp2581
(g2572
NS'2'
S'D'
tp2582
a(dp2583
g7
I1
saa(lp2584
(g2572
NS'2'
S'E'
tp2585
a(dp2586
g7
F2.5
saa(lp2587
(g2572
NS'3'
S'A'
tp2588
a(dp2589
g7
I5
saa(lp2590
(g2572
NS'3'
S'B'
tp2591
a(dp2592
g7
I8
saa(lp2593
(g2572
NS'3'
S'C'
tp2594
a(dp2595
g7
I5
saa(lp2596
(g2572
NS'3'
S'D'
tp2597
a(dp2598
g7
I2
saa(lp2599
(g2572
NS'3'
S'E'
tp2600
a(dp2601
g7
I5
saa(lp2602
(g2572
NS'4'
S'A'
tp2603
a(dp2604
g7
I10
saa(lp2605
(g2572
NS'4'
S'B'
tp2606
a(dp2607
g7
I16
saa(lp2608
(g2572
NS'4'
S'C'
tp2609
a(dp2610
g7
I10
saa(lp2611
(g2572
NS'4'
S'D'
tp2612
a(dp2613
g7
I4
saa(lp2614
(g2572
NS'4'
S'E'
tp2615
a(dp2616
g7
I10
saa(lp2617
(g2572
NS'5'
S'A'
tp2618
a(dp2619
g7
I20
saa(lp2620
(g2572
NS'5'
S'B'
tp2621
a(dp2622
g7
I32
saa(lp2623
(g2572
NS'5'
S'C'
tp2624
a(dp2625
g7
I20
saa(lp2626
(g2572
NS'5'
S'D'
tp2627
a(dp2628
g7
I8
saa(lp2629
(g2572
NS'5'
S'E'
tp2630
a(dp2631
g7
I20
saa(lp2632
(g2572
NS'6'
S'A'
tp2633
a(dp2634
g7
I40
saa(lp2635
(g2572
NS'6'
S'B'
tp2636
a(dp2637
g7
I64
saa(lp2638
(g2572
NS'6'
S'C'
tp2639
a(dp2640
g7
I40
saa(lp2641
(g2572
NS'6'
S'D'
tp2642
a(dp2643
g7
I16
saa(lp2644
(g2572
NS'6'
S'E'
tp2645
a(dp2646
g7
I40
saa(lp2647
(g2572
NS'7'
S'A'
tp2648
a(dp2649
g7
I80
saa(lp2650
(g2572
NS'7'
S'B'
tp2651
a(dp2652
g7
I128
saa(lp2653
(g2572
NS'7'
S'C'
tp2654
a(dp2655
g7
I80
saa(lp2656
(g2572
NS'7'
S'D'
tp2657
a(dp2658
g7
I32
saa(lp2659
(g2572
NS'7'
S'E'
tp2660
a(dp2661
g7
I80
saa(lp2662
(g2572
NS'8'
S'A'
tp2663
a(dp2664
g7
I160
saa(lp2665
(g2572
NS'8'
S'B'
tp2666
a(dp2667
g7
I256
saa(lp2668
(g2572
NS'8'
S'C'
tp2669
a(dp2670
g7
I160
saa(lp2671
(g2572
NS'8'
S'D'
tp2672
a(dp2673
g7
I64
saa(lp2674
(g2572
NS'8'
S'E'
tp2675
a(dp2676
g7
I160
saa(lp2677
(S'Torpedo Pylon'
p2678
NS'1'
S'I'
tp2679
a(dp2680
g7
I2
saa(lp2681
(g2678
NS'2'
S'I'
tp2682
a(dp2683
g7
I4
saa(lp2684
(S'Xeno Scanner'
p2685
NS'0'
S'E'
tp2686
a(dp2687
g7
F1.3
saatRp2688
.