ccollections
OrderedDict
p1
((lp2
(lp3
(S'AX Missile Rack'
p4
NS'2'
S'B'
tp5
a(dp6
S'mass'
p7
I4
saa(lp8
(g4
NS'3'
S'A'
tp9
a(dp10
g7
I8
saa(lp11
(S'AX Multi-Cannon'
p12
NS'2'
S'E'
tp13
a(dp14
g7
I4
saa(lp15
(g12
NS'2'
S'F'
tp16
a(dp17
g7
I4
saa(lp18
(g12
NS'3'
S'C'
tp19
a(dp20
g7
I8
saa(lp21
(g12
NS'3'
S'E'
tp22
a(dp23
g7
I8
saa(lp24
(S'Advanced Discovery Scanner'
p25
NS'1'
S'C'
tp26
a(dp27
g7
I2
saa(lp28
(S'Advanced Plasma Accelerator'
p29
NS'3'
S'B'
tp30
a(dp31
g7
I8
saa(lp32
(S'Auto Field-Maintenance Unit'
p33
NS'1'
S'A'
tp34
a(dp35
g7
I0
saa(lp36
(g33
NS'1'
S'B'
tp37
a(dp38
g7
I0
saa(lp39
(g33
NS'1'
S'C'
tp40
a(dp41
g7
I0
saa(lp42
(g33
NS'1'
S'D'
tp43
a(dp44
g7
I0
saa(lp45
(g33
NS'1'
S'E'
tp46
a(dp47
g7
I0
saa(lp48
(g33
NS'2'
S'A'
tp49
a(dp50
g7
I0
saa(lp51
(g33
NS'2'
S'B'
tp52
a(dp53
g7
I0
saa(lp54
(g33
NS'2'
S'C'
tp55
a(dp56
g7
I0
saa(lp57
(g33
NS'2'
S'D'
tp58
a(dp59
g7
I0
saa(lp60
(g33
NS'2'
S'E'
tp61
a(dp62
g7
I0
saa(lp63
(g33
NS'3'
S'A'
tp64
a(dp65
g7
I0
saa(lp66
(g33
NS'3'
S'B'
tp67
a(dp68
g7
I0
saa(lp69
(g33
NS'3'
S'C'
tp70
a(dp71
g7
I0
saa(lp72
(g33
NS'3'
S'D'
tp73
a(dp74
g7
I0
saa(lp75
(g33
NS'3'
S'E'
tp76
a(dp77
g7
I0
saa(lp78
(g33
NS'4'
S'A'
tp79
a(dp80
g7
I0
saa(lp81
(g33
NS'4'
S'B'
tp82
a(dp83
g7
I0
saa(lp84
(g33
NS'4'
S'C'
tp85
a(dp86
g7
I0
saa(lp87
(g33
NS'4'
S'D'
tp88
a(dp89
g7
I0
saa(lp90
(g33
NS'4'
S'E'
tp91
a(dp92
g7
I0
saa(lp93
(g33
NS'5'
S'A'
tp94
a(dp95
g7
I0
saa(lp96
(g33
NS'5'
S'B'
tp97
a(dp98
g7
I0
saa(lp99
(g33
NS'5'
S'C'
tp100
a(dp101
g7
I0
saa(lp102
(g33
NS'5'
S'D'
tp103
a(dp104
g7
I0
saa(lp105
(g33
NS'5'
S'E'
tp106
a(dp107
g7
I0
saa(lp108
(g33
NS'6'
S'A'
tp109
a(dp110
g7
I0
saa(lp111
(g33
NS'6'
S'B'
tp112
a(dp113
g7
I0
saa(lp114
(g33
NS'6'
S'C'
tp115
a(dp116
g7
I0
saa(lp117
(g33
NS'6'
S'D'
tp118
a(dp119
g7
I0
saa(lp120
(g33
NS'6'
S'E'
tp121
a(dp122
g7
I0
saa(lp123
(g33
NS'7'
S'A'
tp124
a(dp125
g7
I0
saa(lp126
(g33
NS'7'
S'B'
tp127
a(dp128
g7
I0
saa(lp129
(g33
NS'7'
S'C'
tp130
a(dp131
g7
I0
saa(lp132
(g33
NS'7'
S'D'
tp133
a(dp134
g7
I0
saa(lp135
(g33
NS'7'
S'E'
tp136
a(dp137
g7
I0
saa(lp138
(g33
NS'8'
S'A'
tp139
a(dp140
g7
I0
saa(lp141
(g33
NS'8'
S'B'
tp142
a(dp143
g7
I0
saa(lp144
(g33
NS'8'
S'C'
tp145
a(dp146
g7
I0
saa(lp147
(g33
NS'8'
S'D'
tp148
a(dp149
g7
I0
saa(lp150
(g33
NS'8'
S'E'
tp151
a(dp152
g7
I0
saa(lp153
(S'Basic Discovery Scanner'
p154
NS'1'
S'E'
tp155
a(dp156
g7
I2
saa(lp157
(S'Beam Laser'
p158
NS'1'
S'E'
tp159
a(dp160
g7
I2
saa(lp161
(g158
NS'1'
S'F'
tp162
a(dp163
g7
I2
saa(lp164
(g158
NS'2'
S'D'
tp165
a(dp166
g7
I4
saa(lp167
(g158
NS'2'
S'E'
tp168
a(dp169
g7
I4
saa(lp170
(g158
NS'3'
S'C'
tp171
a(dp172
g7
I8
saa(lp173
(g158
NS'3'
S'D'
tp174
a(dp175
g7
I8
saa(lp176
(g158
NS'4'
S'A'
tp177
a(dp178
g7
I16
saa(lp179
(S'Bi-Weave Shield Generator'
p180
NS'1'
S'C'
tp181
a(dp182
g7
F1.3
saa(lp183
(g180
NS'2'
S'C'
tp184
a(dp185
g7
F2.5
saa(lp186
(g180
NS'3'
S'C'
tp187
a(dp188
g7
I5
saa(lp189
(g180
NS'4'
S'C'
tp190
a(dp191
g7
I10
saa(lp192
(g180
NS'5'
S'C'
tp193
a(dp194
g7
I20
saa(lp195
(g180
NS'6'
S'C'
tp196
a(dp197
g7
I40
saa(lp198
(g180
NS'7'
S'C'
tp199
a(dp200
g7
I80
saa(lp201
(g180
NS'8'
S'C'
tp202
a(dp203
g7
I160
saa(lp204
(S'Burst Laser'
p205
NS'1'
S'F'
tp206
a(dp207
g7
I2
saa(lp208
(g205
NS'1'
S'G'
tp209
a(dp210
g7
I2
saa(lp211
(g205
NS'2'
S'E'
tp212
a(dp213
g7
I4
saa(lp214
(g205
NS'2'
S'F'
tp215
a(dp216
g7
I4
saa(lp217
(g205
NS'3'
S'D'
tp218
a(dp219
g7
I8
saa(lp220
(g205
NS'3'
S'E'
tp221
a(dp222
g7
I8
saa(lp223
(g205
NS'4'
S'E'
tp224
a(dp225
g7
I16
saa(lp226
(S'Business Class Passenger Cabin'
p227
NS'3'
S'D'
tp228
a(dp229
g7
I5
saa(lp230
(g227
NS'4'
S'D'
tp231
a(dp232
g7
I10
saa(lp233
(g227
NS'5'
S'D'
tp234
a(dp235
g7
I20
saa(lp236
(g227
NS'6'
S'D'
tp237
a(dp238
g7
I40
saa(lp239
(S'Cannon'
p240
NS'1'
S'D'
tp241
a(dp242
g7
I2
saa(lp243
(g240
NS'1'
S'E'
tp244
a(dp245
g7
I2
saa(lp246
(g240
NS'1'
S'F'
tp247
a(dp248
g7
I2
saa(lp249
(g240
NS'2'
S'D'
tp250
a(dp251
g7
I4
saa(lp252
(g240
NS'2'
S'E'
tp253
a(dp254
g7
I4
saa(lp255
(g240
NS'3'
S'C'
tp256
a(dp257
g7
I8
saa(lp258
(g240
NS'3'
S'D'
tp259
a(dp260
g7
I8
saa(lp261
(g240
NS'4'
S'B'
tp262
a(dp263
g7
I16
saa(lp264
(S'Cargo Rack'
p265
NS'1'
S'E'
tp266
a(dp267
g7
I0
saa(lp268
(g265
NS'2'
S'E'
tp269
a(dp270
g7
I0
saa(lp271
(g265
NS'3'
S'E'
tp272
a(dp273
g7
I0
saa(lp274
(g265
NS'4'
S'E'
tp275
a(dp276
g7
I0
saa(lp277
(g265
NS'5'
S'E'
tp278
a(dp279
g7
I0
saa(lp280
(g265
NS'6'
S'E'
tp281
a(dp282
g7
I0
saa(lp283
(g265
NS'7'
S'E'
tp284
a(dp285
g7
I0
saa(lp286
(g265
NS'8'
S'E'
tp287
a(dp288
g7
I0
saa(lp289
(S'Cargo Scanner'
p290
NS'0'
S'A'
tp291
a(dp292
g7
F1.3
saa(lp293
(g290
NS'0'
S'B'
tp294
a(dp295
g7
F1.3
saa(lp296
(g290
NS'0'
S'C'
tp297
a(dp298
g7
F1.3
saa(lp299
(g290
NS'0'
S'D'
tp300
a(dp301
g7
F1.3
saa(lp302
(g290
NS'0'
S'E'
tp303
a(dp304
g7
F1.3
saa(lp305
(S'Chaff Launcher'
p306
NS'0'
S'I'
tp307
a(dp308
g7
F1.3
saa(lp309
(S'Collector Limpet Controller'
p310
NS'1'
S'A'
tp311
a(dp312
g7
I2
saa(lp313
(g310
NS'1'
S'B'
tp314
a(dp315
g7
I2
saa(lp316
(g310
NS'1'
S'C'
tp317
a(dp318
g7
F1.3
saa(lp319
(g310
NS'1'
S'D'
tp320
a(dp321
g7
F0.5
saa(lp322
(g310
NS'1'
S'E'
tp323
a(dp324
g7
F0.5
saa(lp325
(g310
NS'3'
S'A'
tp326
a(dp327
g7
I8
saa(lp328
(g310
NS'3'
S'B'
tp329
a(dp330
g7
I8
saa(lp331
(g310
NS'3'
S'C'
tp332
a(dp333
g7
I5
saa(lp334
(g310
NS'3'
S'D'
tp335
a(dp336
g7
I2
saa(lp337
(g310
NS'3'
S'E'
tp338
a(dp339
g7
I2
saa(lp340
(g310
NS'5'
S'A'
tp341
a(dp342
g7
I32
saa(lp343
(g310
NS'5'
S'B'
tp344
a(dp345
g7
I32
saa(lp346
(g310
NS'5'
S'C'
tp347
a(dp348
g7
I20
saa(lp349
(g310
NS'5'
S'D'
tp350
a(dp351
g7
I8
saa(lp352
(g310
NS'5'
S'E'
tp353
a(dp354
g7
I8
saa(lp355
(g310
NS'7'
S'A'
tp356
a(dp357
g7
I128
saa(lp358
(g310
NS'7'
S'B'
tp359
a(dp360
g7
I128
saa(lp361
(g310
NS'7'
S'C'
tp362
a(dp363
g7
I80
saa(lp364
(g310
NS'7'
S'D'
tp365
a(dp366
g7
I32
saa(lp367
(g310
NS'7'
S'E'
tp368
a(dp369
g7
I32
saa(lp370
(S'Corrosion Resistant Cargo Rack'
p371
NS'1'
S'E'
tp372
a(dp373
g7
I0
saa(lp374
(g371
NS'1'
S'F'
tp375
a(dp376
g7
I0
saa(lp377
(S'Cytoscrambler Burst Laser'
p378
NS'1'
S'F'
tp379
a(dp380
g7
I2
saa(lp381
(S'Decontamination Limpet Controller'
p382
NS'1'
S'E'
tp383
a(dp384
g7
F1.3
saa(lp385
(g382
NS'3'
S'E'
tp386
a(dp387
g7
I2
saa(lp388
(g382
NS'5'
S'E'
tp389
a(dp390
g7
I20
saa(lp391
(g382
NS'7'
S'E'
tp392
a(dp393
g7
I128
saa(lp394
(S'Detailed Surface Scanner'
p395
NS'1'
S'C'
tp396
a(dp397
g7
F1.3
saa(lp398
(S'Economy Class Passenger Cabin'
p399
NS'2'
S'E'
tp400
a(dp401
g7
F2.5
saa(lp402
(g399
NS'3'
S'E'
tp403
a(dp404
g7
I5
saa(lp405
(g399
NS'4'
S'E'
tp406
a(dp407
g7
I10
saa(lp408
(g399
NS'5'
S'E'
tp409
a(dp410
g7
I20
saa(lp411
(g399
NS'6'
S'E'
tp412
a(dp413
g7
I40
saa(lp414
(S'Electronic Countermeasure'
p415
NS'0'
S'F'
tp416
a(dp417
g7
F1.3
saa(lp418
(S'Enforcer Cannon'
p419
NS'1'
S'F'
tp420
a(dp421
g7
I2
saa(lp422
(S'Enhanced Performance Thrusters'
p423
NS'2'
S'A'
tp424
a(dp425
g7
F2.5
saa(lp426
(g423
NS'3'
S'A'
tp427
a(dp428
g7
I5
saa(lp429
(S'Fighter Hangar'
p430
NS'5'
S'D'
tp431
a(dp432
g7
I20
saa(lp433
(g430
NS'6'
S'D'
tp434
a(dp435
g7
I40
saa(lp436
(g430
NS'7'
S'D'
tp437
a(dp438
g7
I60
saa(lp439
(S'First Class Passenger Cabin'
p440
NS'4'
S'C'
tp441
a(dp442
g7
I10
saa(lp443
(g440
NS'5'
S'C'
tp444
a(dp445
g7
I20
saa(lp446
(g440
NS'6'
S'C'
tp447
a(dp448
g7
I40
saa(lp449
(S'Fragment Cannon'
p450
NS'1'
S'E'
tp451
a(dp452
g7
I2
saa(lp453
(g450
NS'2'
S'A'
tp454
a(dp455
g7
I4
saa(lp456
(g450
NS'2'
S'D'
tp457
a(dp458
g7
I4
saa(lp459
(g450
NS'3'
S'C'
tp460
a(dp461
g7
I8
saa(lp462
(S'Frame Shift Drive'
p463
NS'2'
S'A'
tp464
a(dp465
S'optmass'
p466
I90
sS'fuelmul'
p467
F0.012
sg7
F2.5
sS'maxfuel'
p468
F0.90000000000000002
sS'fuelpower'
p469
I2
saa(lp470
(g463
NS'2'
S'B'
tp471
a(dp472
g466
I75
sg467
F0.01
sg7
I4
sg468
F0.80000000000000004
sg469
I2
saa(lp473
(g463
NS'2'
S'C'
tp474
a(dp475
g466
I60
sg467
F0.0080000000000000002
sg7
F2.5
sg468
F0.59999999999999998
sg469
I2
saa(lp476
(g463
NS'2'
S'D'
tp477
a(dp478
g466
I54
sg467
F0.01
sg7
I1
sg468
F0.59999999999999998
sg469
I2
saa(lp479
(g463
NS'2'
S'E'
tp480
a(dp481
g466
I48
sg467
F0.010999999999999999
sg7
F2.5
sg468
F0.59999999999999998
sg469
I2
saa(lp482
(g463
NS'3'
S'A'
tp483
a(dp484
g466
I150
sg467
F0.012
sg7
I5
sg468
F1.8
sg469
F2.1499999999999999
saa(lp485
(g463
NS'3'
S'B'
tp486
a(dp487
g466
I125
sg467
F0.01
sg7
I8
sg468
F1.5
sg469
F2.1499999999999999
saa(lp488
(g463
NS'3'
S'C'
tp489
a(dp490
g466
I100
sg467
F0.0080000000000000002
sg7
I5
sg468
F1.2
sg469
F2.1499999999999999
saa(lp491
(g463
NS'3'
S'D'
tp492
a(dp493
g466
I90
sg467
F0.01
sg7
I2
sg468
F1.2
sg469
F2.1499999999999999
saa(lp494
(g463
NS'3'
S'E'
tp495
a(dp496
g466
I80
sg467
F0.010999999999999999
sg7
I5
sg468
F1.2
sg469
F2.1499999999999999
saa(lp497
(g463
NS'4'
S'A'
tp498
a(dp499
g466
I525
sg467
F0.012
sg7
I10
sg468
I3
sg469
F2.2999999999999998
saa(lp500
(g463
NS'4'
S'B'
tp501
a(dp502
g466
F437.5
sg467
F0.01
sg7
I16
sg468
F2.5
sg469
F2.2999999999999998
saa(lp503
(g463
NS'4'
S'C'
tp504
a(dp505
g466
I350
sg467
F0.0080000000000000002
sg7
I10
sg468
I2
sg469
F2.2999999999999998
saa(lp506
(g463
NS'4'
S'D'
tp507
a(dp508
g466
I315
sg467
F0.01
sg7
I4
sg468
I2
sg469
F2.2999999999999998
saa(lp509
(g463
NS'4'
S'E'
tp510
a(dp511
g466
I280
sg467
F0.010999999999999999
sg7
I10
sg468
I2
sg469
F2.2999999999999998
saa(lp512
(g463
NS'5'
S'A'
tp513
a(dp514
g466
I1050
sg467
F0.012
sg7
I20
sg468
I5
sg469
F2.4500000000000002
saa(lp515
(g463
NS'5'
S'B'
tp516
a(dp517
g466
I875
sg467
F0.01
sg7
I32
sg468
F4.0999999999999996
sg469
F2.4500000000000002
saa(lp518
(g463
NS'5'
S'C'
tp519
a(dp520
g466
I700
sg467
F0.0080000000000000002
sg7
I20
sg468
F3.2999999999999998
sg469
F2.4500000000000002
saa(lp521
(g463
NS'5'
S'D'
tp522
a(dp523
g466
I630
sg467
F0.01
sg7
I8
sg468
F3.2999999999999998
sg469
F2.4500000000000002
saa(lp524
(g463
NS'5'
S'E'
tp525
a(dp526
g466
I560
sg467
F0.010999999999999999
sg7
I20
sg468
F3.2999999999999998
sg469
F2.4500000000000002
saa(lp527
(g463
NS'6'
S'A'
tp528
a(dp529
g466
I1800
sg467
F0.012
sg7
I40
sg468
I8
sg469
F2.6000000000000001
saa(lp530
(g463
NS'6'
S'B'
tp531
a(dp532
g466
I1500
sg467
F0.01
sg7
I64
sg468
F6.5999999999999996
sg469
F2.6000000000000001
saa(lp533
(g463
NS'6'
S'C'
tp534
a(dp535
g466
I1200
sg467
F0.0080000000000000002
sg7
I40
sg468
F5.2999999999999998
sg469
F2.6000000000000001
saa(lp536
(g463
NS'6'
S'D'
tp537
a(dp538
g466
I1080
sg467
F0.01
sg7
I16
sg468
F5.2999999999999998
sg469
F2.6000000000000001
saa(lp539
(g463
NS'6'
S'E'
tp540
a(dp541
g466
I960
sg467
F0.010999999999999999
sg7
I40
sg468
F5.2999999999999998
sg469
F2.6000000000000001
saa(lp542
(g463
NS'7'
S'A'
tp543
a(dp544
g466
I2700
sg467
F0.012
sg7
I80
sg468
F12.800000000000001
sg469
F2.75
saa(lp545
(g463
NS'7'
S'B'
tp546
a(dp547
g466
I2250
sg467
F0.01
sg7
I128
sg468
F10.6
sg469
F2.75
saa(lp548
(g463
NS'7'
S'C'
tp549
a(dp550
g466
I1800
sg467
F0.0080000000000000002
sg7
I80
sg468
F8.5
sg469
F2.75
saa(lp551
(g463
NS'7'
S'D'
tp552
a(dp553
g466
I1620
sg467
F0.01
sg7
I32
sg468
F8.5
sg469
F2.75
saa(lp554
(g463
NS'7'
S'E'
tp555
a(dp556
g466
I1440
sg467
F0.010999999999999999
sg7
I80
sg468
F8.5
sg469
F2.75
saa(lp557
(g463
NS'8'
S'A'
tp558
a(dp559
g466
I0
sg467
F0.012
sg7
I160
sg468
I0
sg469
F2.8999999999999999
saa(lp560
(g463
NS'8'
S'B'
tp561
a(dp562
g466
I0
sg467
F0.01
sg7
I256
sg468
I0
sg469
F2.8999999999999999
saa(lp563
(g463
NS'8'
S'C'
tp564
a(dp565
g466
I0
sg467
F0.0080000000000000002
sg7
I160
sg468
I0
sg469
F2.8999999999999999
saa(lp566
(g463
NS'8'
S'D'
tp567
a(dp568
g466
I0
sg467
F0.01
sg7
I64
sg468
I0
sg469
F2.8999999999999999
saa(lp569
(g463
NS'8'
S'E'
tp570
a(dp571
g466
I0
sg467
F0.010999999999999999
sg7
I160
sg468
I0
sg469
F2.8999999999999999
saa(lp572
(S'Frame Shift Drive Interdictor'
p573
NS'1'
S'A'
tp574
a(dp575
g7
F1.3
saa(lp576
(g573
NS'1'
S'B'
tp577
a(dp578
g7
I2
saa(lp579
(g573
NS'1'
S'C'
tp580
a(dp581
g7
F1.3
saa(lp582
(g573
NS'1'
S'D'
tp583
a(dp584
g7
F0.5
saa(lp585
(g573
NS'1'
S'E'
tp586
a(dp587
g7
F1.3
saa(lp588
(g573
NS'2'
S'A'
tp589
a(dp590
g7
F2.5
saa(lp591
(g573
NS'2'
S'B'
tp592
a(dp593
g7
I4
saa(lp594
(g573
NS'2'
S'C'
tp595
a(dp596
g7
F2.5
saa(lp597
(g573
NS'2'
S'D'
tp598
a(dp599
g7
I1
saa(lp600
(g573
NS'2'
S'E'
tp601
a(dp602
g7
F2.5
saa(lp603
(g573
NS'3'
S'A'
tp604
a(dp605
g7
I5
saa(lp606
(g573
NS'3'
S'B'
tp607
a(dp608
g7
I8
saa(lp609
(g573
NS'3'
S'C'
tp610
a(dp611
g7
I5
saa(lp612
(g573
NS'3'
S'D'
tp613
a(dp614
g7
I2
saa(lp615
(g573
NS'3'
S'E'
tp616
a(dp617
g7
I5
saa(lp618
(g573
NS'4'
S'A'
tp619
a(dp620
g7
I10
saa(lp621
(g573
NS'4'
S'B'
tp622
a(dp623
g7
I16
saa(lp624
(g573
NS'4'
S'C'
tp625
a(dp626
g7
I10
saa(lp627
(g573
NS'4'
S'D'
tp628
a(dp629
g7
I4
saa(lp630
(g573
NS'4'
S'E'
tp631
a(dp632
g7
I10
saa(lp633
(S'Frame Shift Wake Scanner'
p634
NS'0'
S'A'
tp635
a(dp636
g7
F1.3
saa(lp637
(g634
NS'0'
S'B'
tp638
a(dp639
g7
F1.3
saa(lp640
(g634
NS'0'
S'C'
tp641
a(dp642
g7
F1.3
saa(lp643
(g634
NS'0'
S'D'
tp644
a(dp645
g7
F1.3
saa(lp646
(g634
NS'0'
S'E'
tp647
a(dp648
g7
F1.3
saa(lp649
(S'Fuel Scoop'
p650
NS'1'
S'A'
tp651
a(dp652
g7
I0
saa(lp653
(g650
NS'1'
S'B'
tp654
a(dp655
g7
I0
saa(lp656
(g650
NS'1'
S'C'
tp657
a(dp658
g7
I0
saa(lp659
(g650
NS'1'
S'D'
tp660
a(dp661
g7
I0
saa(lp662
(g650
NS'1'
S'E'
tp663
a(dp664
g7
I0
saa(lp665
(g650
NS'2'
S'A'
tp666
a(dp667
g7
I0
saa(lp668
(g650
NS'2'
S'B'
tp669
a(dp670
g7
I0
saa(lp671
(g650
NS'2'
S'C'
tp672
a(dp673
g7
I0
saa(lp674
(g650
NS'2'
S'D'
tp675
a(dp676
g7
I0
saa(lp677
(g650
NS'2'
S'E'
tp678
a(dp679
g7
I0
saa(lp680
(g650
NS'3'
S'A'
tp681
a(dp682
g7
I0
saa(lp683
(g650
NS'3'
S'B'
tp684
a(dp685
g7
I0
saa(lp686
(g650
NS'3'
S'C'
tp687
a(dp688
g7
I0
saa(lp689
(g650
NS'3'
S'D'
tp690
a(dp691
g7
I0
saa(lp692
(g650
NS'3'
S'E'
tp693
a(dp694
g7
I0
saa(lp695
(g650
NS'4'
S'A'
tp696
a(dp697
g7
I0
saa(lp698
(g650
NS'4'
S'B'
tp699
a(dp700
g7
I0
saa(lp701
(g650
NS'4'
S'C'
tp702
a(dp703
g7
I0
saa(lp704
(g650
NS'4'
S'D'
tp705
a(dp706
g7
I0
saa(lp707
(g650
NS'4'
S'E'
tp708
a(dp709
g7
I0
saa(lp710
(g650
NS'5'
S'A'
tp711
a(dp712
g7
I0
saa(lp713
(g650
NS'5'
S'B'
tp714
a(dp715
g7
I0
saa(lp716
(g650
NS'5'
S'C'
tp717
a(dp718
g7
I0
saa(lp719
(g650
NS'5'
S'D'
tp720
a(dp721
g7
I0
saa(lp722
(g650
NS'5'
S'E'
tp723
a(dp724
g7
I0
saa(lp725
(g650
NS'6'
S'A'
tp726
a(dp727
g7
I0
saa(lp728
(g650
NS'6'
S'B'
tp729
a(dp730
g7
I0
saa(lp731
(g650
NS'6'
S'C'
tp732
a(dp733
g7
I0
saa(lp734
(g650
NS'6'
S'D'
tp735
a(dp736
g7
I0
saa(lp737
(g650
NS'6'
S'E'
tp738
a(dp739
g7
I0
saa(lp740
(g650
NS'7'
S'A'
tp741
a(dp742
g7
I0
saa(lp743
(g650
NS'7'
S'B'
tp744
a(dp745
g7
I0
saa(lp746
(g650
NS'7'
S'C'
tp747
a(dp748
g7
I0
saa(lp749
(g650
NS'7'
S'D'
tp750
a(dp751
g7
I0
saa(lp752
(g650
NS'7'
S'E'
tp753
a(dp754
g7
I0
saa(lp755
(g650
NS'8'
S'A'
tp756
a(dp757
g7
I0
saa(lp758
(g650
NS'8'
S'B'
tp759
a(dp760
g7
I0
saa(lp761
(g650
NS'8'
S'C'
tp762
a(dp763
g7
I0
saa(lp764
(g650
NS'8'
S'D'
tp765
a(dp766
g7
I0
saa(lp767
(g650
NS'8'
S'E'
tp768
a(dp769
g7
I0
saa(lp770
(S'Fuel Tank'
p771
NS'1'
S'C'
tp772
a(dp773
g7
I0
saa(lp774
(g771
NS'2'
S'C'
tp775
a(dp776
g7
I0
saa(lp777
(g771
NS'3'
S'C'
tp778
a(dp779
g7
I0
saa(lp780
(g771
NS'4'
S'C'
tp781
a(dp782
g7
I0
saa(lp783
(g771
NS'5'
S'C'
tp784
a(dp785
g7
I0
saa(lp786
(g771
NS'6'
S'C'
tp787
a(dp788
g7
I0
saa(lp789
(g771
NS'7'
S'C'
tp790
a(dp791
g7
I0
saa(lp792
(g771
NS'8'
S'C'
tp793
a(dp794
g7
I0
saa(lp795
(S'Fuel Transfer Limpet Controller'
p796
NS'1'
S'A'
tp797
a(dp798
g7
F1.3
saa(lp799
(g796
NS'1'
S'B'
tp800
a(dp801
g7
I2
saa(lp802
(g796
NS'1'
S'C'
tp803
a(dp804
g7
F1.3
saa(lp805
(g796
NS'1'
S'D'
tp806
a(dp807
g7
F0.5
saa(lp808
(g796
NS'1'
S'E'
tp809
a(dp810
g7
F1.3
saa(lp811
(g796
NS'3'
S'A'
tp812
a(dp813
g7
I5
saa(lp814
(g796
NS'3'
S'B'
tp815
a(dp816
g7
I8
saa(lp817
(g796
NS'3'
S'C'
tp818
a(dp819
g7
I5
saa(lp820
(g796
NS'3'
S'D'
tp821
a(dp822
g7
I2
saa(lp823
(g796
NS'3'
S'E'
tp824
a(dp825
g7
I5
saa(lp826
(g796
NS'5'
S'A'
tp827
a(dp828
g7
I20
saa(lp829
(g796
NS'5'
S'B'
tp830
a(dp831
g7
I32
saa(lp832
(g796
NS'5'
S'C'
tp833
a(dp834
g7
I20
saa(lp835
(g796
NS'5'
S'D'
tp836
a(dp837
g7
I8
saa(lp838
(g796
NS'5'
S'E'
tp839
a(dp840
g7
I20
saa(lp841
(g796
NS'7'
S'A'
tp842
a(dp843
g7
I80
saa(lp844
(g796
NS'7'
S'B'
tp845
a(dp846
g7
I128
saa(lp847
(g796
NS'7'
S'C'
tp848
a(dp849
g7
I80
saa(lp850
(g796
NS'7'
S'D'
tp851
a(dp852
g7
I32
saa(lp853
(g796
NS'7'
S'E'
tp854
a(dp855
g7
I80
saa(lp856
(S'Hatch Breaker Limpet Controller'
p857
NS'1'
S'A'
tp858
a(dp859
g7
F1.3
saa(lp860
(g857
NS'1'
S'B'
tp861
a(dp862
g7
I2
saa(lp863
(g857
NS'1'
S'C'
tp864
a(dp865
g7
F1.3
saa(lp866
(g857
NS'1'
S'D'
tp867
a(dp868
g7
F0.5
saa(lp869
(g857
NS'1'
S'E'
tp870
a(dp871
g7
F1.3
saa(lp872
(g857
NS'3'
S'A'
tp873
a(dp874
g7
I5
saa(lp875
(g857
NS'3'
S'B'
tp876
a(dp877
g7
I8
saa(lp878
(g857
NS'3'
S'C'
tp879
a(dp880
g7
I5
saa(lp881
(g857
NS'3'
S'D'
tp882
a(dp883
g7
I2
saa(lp884
(g857
NS'3'
S'E'
tp885
a(dp886
g7
I5
saa(lp887
(g857
NS'5'
S'A'
tp888
a(dp889
g7
I20
saa(lp890
(g857
NS'5'
S'B'
tp891
a(dp892
g7
I32
saa(lp893
(g857
NS'5'
S'C'
tp894
a(dp895
g7
I20
saa(lp896
(g857
NS'5'
S'D'
tp897
a(dp898
g7
I8
saa(lp899
(g857
NS'5'
S'E'
tp900
a(dp901
g7
I20
saa(lp902
(g857
NS'7'
S'A'
tp903
a(dp904
g7
I90
saa(lp905
(g857
NS'7'
S'B'
tp906
a(dp907
g7
I128
saa(lp908
(g857
NS'7'
S'C'
tp909
a(dp910
g7
I80
saa(lp911
(g857
NS'7'
S'D'
tp912
a(dp913
g7
I32
saa(lp914
(g857
NS'7'
S'E'
tp915
a(dp916
g7
I80
saa(lp917
(S'Heat Sink Launcher'
p918
NS'0'
S'I'
tp919
a(dp920
g7
F1.3
saa(lp921
(S'Hull Reinforcement Package'
p922
NS'1'
S'D'
tp923
a(dp924
g7
I1
saa(lp925
(g922
NS'1'
S'E'
tp926
a(dp927
g7
I2
saa(lp928
(g922
NS'2'
S'D'
tp929
a(dp930
g7
I2
saa(lp931
(g922
NS'2'
S'E'
tp932
a(dp933
g7
I4
saa(lp934
(g922
NS'3'
S'D'
tp935
a(dp936
g7
I4
saa(lp937
(g922
NS'3'
S'E'
tp938
a(dp939
g7
I8
saa(lp940
(g922
NS'4'
S'D'
tp941
a(dp942
g7
I8
saa(lp943
(g922
NS'4'
S'E'
tp944
a(dp945
g7
I16
saa(lp946
(g922
NS'5'
S'D'
tp947
a(dp948
g7
I16
saa(lp949
(g922
NS'5'
S'E'
tp950
a(dp951
g7
I32
saa(lp952
(S'Imperial Hammer Rail Gun'
p953
NS'2'
S'B'
tp954
a(dp955
g7
I4
saa(lp956
(S'Intermediate Discovery Scanner'
p957
NS'1'
S'D'
tp958
a(dp959
g7
I2
saa(lp960
(S'Kill Warrant Scanner'
p961
NS'0'
S'A'
tp962
a(dp963
g7
F1.3
saa(lp964
(g961
NS'0'
S'B'
tp965
a(dp966
g7
F1.3
saa(lp967
(g961
NS'0'
S'C'
tp968
a(dp969
g7
F1.3
saa(lp970
(g961
NS'0'
S'D'
tp971
a(dp972
g7
F1.3
saa(lp973
(g961
NS'0'
S'E'
tp974
a(dp975
g7
F1.3
saa(lp976
(S'Life Support'
p977
NS'1'
S'A'
tp978
a(dp979
g7
F1.3
saa(lp980
(g977
NS'1'
S'B'
tp981
a(dp982
g7
I2
saa(lp983
(g977
NS'1'
S'C'
tp984
a(dp985
g7
F1.3
saa(lp986
(g977
NS'1'
S'D'
tp987
a(dp988
g7
F0.5
saa(lp989
(g977
NS'1'
S'E'
tp990
a(dp991
g7
F1.3
saa(lp992
(g977
NS'2'
S'A'
tp993
a(dp994
g7
F2.5
saa(lp995
(g977
NS'2'
S'B'
tp996
a(dp997
g7
I4
saa(lp998
(g977
NS'2'
S'C'
tp999
a(dp1000
g7
F2.5
saa(lp1001
(g977
NS'2'
S'D'
tp1002
a(dp1003
g7
I1
saa(lp1004
(g977
NS'2'
S'E'
tp1005
a(dp1006
g7
F2.5
saa(lp1007
(g977
NS'3'
S'A'
tp1008
a(dp1009
g7
I5
saa(lp1010
(g977
NS'3'
S'B'
tp1011
a(dp1012
g7
I8
saa(lp1013
(g977
NS'3'
S'C'
tp1014
a(dp1015
g7
I5
saa(lp1016
(g977
NS'3'
S'D'
tp1017
a(dp1018
g7
I2
saa(lp1019
(g977
NS'3'
S'E'
tp1020
a(dp1021
g7
I5
saa(lp1022
(g977
NS'4'
S'A'
tp1023
a(dp1024
g7
I10
saa(lp1025
(g977
NS'4'
S'B'
tp1026
a(dp1027
g7
I16
saa(lp1028
(g977
NS'4'
S'C'
tp1029
a(dp1030
g7
I10
saa(lp1031
(g977
NS'4'
S'D'
tp1032
a(dp1033
g7
I4
saa(lp1034
(g977
NS'4'
S'E'
tp1035
a(dp1036
g7
I10
saa(lp1037
(g977
NS'5'
S'A'
tp1038
a(dp1039
g7
I20
saa(lp1040
(g977
NS'5'
S'B'
tp1041
a(dp1042
g7
I32
saa(lp1043
(g977
NS'5'
S'C'
tp1044
a(dp1045
g7
I20
saa(lp1046
(g977
NS'5'
S'D'
tp1047
a(dp1048
g7
I8
saa(lp1049
(g977
NS'5'
S'E'
tp1050
a(dp1051
g7
I20
saa(lp1052
(g977
NS'6'
S'A'
tp1053
a(dp1054
g7
I40
saa(lp1055
(g977
NS'6'
S'B'
tp1056
a(dp1057
g7
I64
saa(lp1058
(g977
NS'6'
S'C'
tp1059
a(dp1060
g7
I40
saa(lp1061
(g977
NS'6'
S'D'
tp1062
a(dp1063
g7
I16
saa(lp1064
(g977
NS'6'
S'E'
tp1065
a(dp1066
g7
I40
saa(lp1067
(g977
NS'7'
S'A'
tp1068
a(dp1069
g7
I80
saa(lp1070
(g977
NS'7'
S'B'
tp1071
a(dp1072
g7
I128
saa(lp1073
(g977
NS'7'
S'C'
tp1074
a(dp1075
g7
I80
saa(lp1076
(g977
NS'7'
S'D'
tp1077
a(dp1078
g7
I32
saa(lp1079
(g977
NS'7'
S'E'
tp1080
a(dp1081
g7
I80
saa(lp1082
(g977
NS'8'
S'A'
tp1083
a(dp1084
g7
I160
saa(lp1085
(g977
NS'8'
S'B'
tp1086
a(dp1087
g7
I256
saa(lp1088
(g977
NS'8'
S'C'
tp1089
a(dp1090
g7
I160
saa(lp1091
(g977
NS'8'
S'D'
tp1092
a(dp1093
g7
I64
saa(lp1094
(g977
NS'8'
S'E'
tp1095
a(dp1096
g7
I160
saa(lp1097
(S'Lightweight Alloy'
p1098
S'Adder'
p1099
S'1'
S'I'
tp1100
a(dp1101
g7
I0
saa(lp1102
(g1098
S'Alliance Chieftain'
p1103
S'1'
S'I'
tp1104
a(dp1105
g7
I0
saa(lp1106
(g1098
S'Anaconda'
p1107
S'1'
S'I'
tp1108
a(dp1109
g7
I0
saa(lp1110
(g1098
S'Asp Explorer'
p1111
S'1'
S'I'
tp1112
a(dp1113
g7
I0
saa(lp1114
(g1098
S'Asp Scout'
p1115
S'1'
S'I'
tp1116
a(dp1117
g7
I0
saa(lp1118
(g1098
S'Beluga Liner'
p1119
S'1'
S'I'
tp1120
a(dp1121
g7
I0
saa(lp1122
(g1098
S'Cobra MkIII'
p1123
S'1'
S'I'
tp1124
a(dp1125
g7
I0
saa(lp1126
(g1098
S'Cobra MkIV'
p1127
S'1'
S'I'
tp1128
a(dp1129
g7
I0
saa(lp1130
(g1098
S'Diamondback Explorer'
p1131
S'1'
S'I'
tp1132
a(dp1133
g7
I0
saa(lp1134
(g1098
S'Diamondback Scout'
p1135
S'1'
S'I'
tp1136
a(dp1137
g7
I0
saa(lp1138
(g1098
S'Dolphin'
p1139
S'1'
S'I'
tp1140
a(dp1141
g7
I0
saa(lp1142
(g1098
S'Eagle'
p1143
S'1'
S'I'
tp1144
a(dp1145
g7
I0
saa(lp1146
(g1098
S'Federal Assault Ship'
p1147
S'1'
S'I'
tp1148
a(dp1149
g7
I0
saa(lp1150
(g1098
S'Federal Corvette'
p1151
S'1'
S'I'
tp1152
a(dp1153
g7
I0
saa(lp1154
(g1098
S'Federal Dropship'
p1155
S'1'
S'I'
tp1156
a(dp1157
g7
I0
saa(lp1158
(g1098
S'Federal Gunship'
p1159
S'1'
S'I'
tp1160
a(dp1161
g7
I0
saa(lp1162
(g1098
S'Fer-de-Lance'
p1163
S'1'
S'I'
tp1164
a(dp1165
g7
I0
saa(lp1166
(g1098
S'Hauler'
p1167
S'1'
S'I'
tp1168
a(dp1169
g7
I0
saa(lp1170
(g1098
S'Imperial Clipper'
p1171
S'1'
S'I'
tp1172
a(dp1173
g7
I0
saa(lp1174
(g1098
S'Imperial Courier'
p1175
S'1'
S'I'
tp1176
a(dp1177
g7
I0
saa(lp1178
(g1098
S'Imperial Cutter'
p1179
S'1'
S'I'
tp1180
a(dp1181
g7
I0
saa(lp1182
(g1098
S'Imperial Eagle'
p1183
S'1'
S'I'
tp1184
a(dp1185
g7
I0
saa(lp1186
(g1098
S'Keelback'
p1187
S'1'
S'I'
tp1188
a(dp1189
g7
I0
saa(lp1190
(g1098
S'Orca'
p1191
S'1'
S'I'
tp1192
a(dp1193
g7
I0
saa(lp1194
(g1098
S'Python'
p1195
S'1'
S'I'
tp1196
a(dp1197
g7
I0
saa(lp1198
(g1098
S'Sidewinder'
p1199
S'1'
S'I'
tp1200
a(dp1201
g7
I0
saa(lp1202
(g1098
S'Type-10 Defender'
p1203
S'1'
S'I'
tp1204
a(dp1205
g7
I0
saa(lp1206
(g1098
S'Type-6 Transporter'
p1207
S'1'
S'I'
tp1208
a(dp1209
g7
I0
saa(lp1210
(g1098
S'Type-7 Transporter'
p1211
S'1'
S'I'
tp1212
a(dp1213
g7
I0
saa(lp1214
(g1098
S'Type-9 Heavy'
p1215
S'1'
S'I'
tp1216
a(dp1217
g7
I0
saa(lp1218
(g1098
S'Viper MkIII'
p1219
S'1'
S'I'
tp1220
a(dp1221
g7
I0
saa(lp1222
(g1098
S'Viper MkIV'
p1223
S'1'
S'I'
tp1224
a(dp1225
g7
I0
saa(lp1226
(g1098
S'Vulture'
p1227
S'1'
S'I'
tp1228
a(dp1229
g7
I0
saa(lp1230
(S'Luxury Class Passenger Cabin'
p1231
NS'5'
S'B'
tp1232
a(dp1233
g7
I20
saa(lp1234
(g1231
NS'6'
S'B'
tp1235
a(dp1236
g7
I40
saa(lp1237
(S'Military Grade Composite'
p1238
g1099
S'1'
S'I'
tp1239
a(dp1240
g7
I5
saa(lp1241
(g1238
g1103
S'1'
S'I'
tp1242
a(dp1243
g7
I150
saa(lp1244
(g1238
g1107
S'1'
S'I'
tp1245
a(dp1246
g7
I60
saa(lp1247
(g1238
g1111
S'1'
S'I'
tp1248
a(dp1249
g7
I42
saa(lp1250
(g1238
g1115
S'1'
S'I'
tp1251
a(dp1252
g7
I42
saa(lp1253
(g1238
g1119
S'1'
S'I'
tp1254
a(dp1255
g7
I165
saa(lp1256
(g1238
g1123
S'1'
S'I'
tp1257
a(dp1258
g7
I27
saa(lp1259
(g1238
g1127
S'1'
S'I'
tp1260
a(dp1261
g7
I27
saa(lp1262
(g1238
g1131
S'1'
S'I'
tp1263
a(dp1264
g7
I47
saa(lp1265
(g1238
g1135
S'1'
S'I'
tp1266
a(dp1267
g7
I26
saa(lp1268
(g1238
g1139
S'1'
S'I'
tp1269
a(dp1270
g7
I63
saa(lp1271
(g1238
g1143
S'1'
S'I'
tp1272
a(dp1273
g7
I8
saa(lp1274
(g1238
g1147
S'1'
S'I'
tp1275
a(dp1276
g7
I87
saa(lp1277
(g1238
g1151
S'1'
S'I'
tp1278
a(dp1279
g7
I60
saa(lp1280
(g1238
g1155
S'1'
S'I'
tp1281
a(dp1282
g7
I87
saa(lp1283
(g1238
g1159
S'1'
S'I'
tp1284
a(dp1285
g7
I87
saa(lp1286
(g1238
g1163
S'1'
S'I'
tp1287
a(dp1288
g7
I38
saa(lp1289
(g1238
g1167
S'1'
S'I'
tp1290
a(dp1291
g7
I2
saa(lp1292
(g1238
g1171
S'1'
S'I'
tp1293
a(dp1294
g7
I60
saa(lp1295
(g1238
g1175
S'1'
S'I'
tp1296
a(dp1297
g7
I8
saa(lp1298
(g1238
g1179
S'1'
S'I'
tp1299
a(dp1300
g7
I60
saa(lp1301
(g1238
g1183
S'1'
S'I'
tp1302
a(dp1303
g7
I8
saa(lp1304
(g1238
g1187
S'1'
S'I'
tp1305
a(dp1306
g7
I23
saa(lp1307
(g1238
g1191
S'1'
S'I'
tp1308
a(dp1309
g7
I87
saa(lp1310
(g1238
g1195
S'1'
S'I'
tp1311
a(dp1312
g7
I53
saa(lp1313
(g1238
g1199
S'1'
S'I'
tp1314
a(dp1315
g7
I4
saa(lp1316
(g1238
g1203
S'1'
S'I'
tp1317
a(dp1318
g7
I150
saa(lp1319
(g1238
g1207
S'1'
S'I'
tp1320
a(dp1321
g7
I23
saa(lp1322
(g1238
g1211
S'1'
S'I'
tp1323
a(dp1324
g7
I63
saa(lp1325
(g1238
g1215
S'1'
S'I'
tp1326
a(dp1327
g7
I150
saa(lp1328
(g1238
g1219
S'1'
S'I'
tp1329
a(dp1330
g7
I9
saa(lp1331
(g1238
g1223
S'1'
S'I'
tp1332
a(dp1333
g7
I9
saa(lp1334
(g1238
g1227
S'1'
S'I'
tp1335
a(dp1336
g7
I35
saa(lp1337
(S'Mine Launcher'
p1338
NS'1'
S'I'
tp1339
a(dp1340
g7
I2
saa(lp1341
(g1338
NS'2'
S'I'
tp1342
a(dp1343
g7
I4
saa(lp1344
(S'Mining Lance Beam Laser'
p1345
NS'1'
S'D'
tp1346
a(dp1347
g7
I2
saa(lp1348
(S'Mining Laser'
p1349
NS'1'
S'D'
tp1350
a(dp1351
g7
I2
saa(lp1352
(g1349
NS'2'
S'D'
tp1353
a(dp1354
g7
I2
saa(lp1355
(S'Mirrored Surface Composite'
p1356
g1099
S'1'
S'I'
tp1357
a(dp1358
g7
I5
saa(lp1359
(g1356
g1103
S'1'
S'I'
tp1360
a(dp1361
g7
I150
saa(lp1362
(g1356
g1107
S'1'
S'I'
tp1363
a(dp1364
g7
I60
saa(lp1365
(g1356
g1111
S'1'
S'I'
tp1366
a(dp1367
g7
I42
saa(lp1368
(g1356
g1115
S'1'
S'I'
tp1369
a(dp1370
g7
I42
saa(lp1371
(g1356
g1119
S'1'
S'I'
tp1372
a(dp1373
g7
I165
saa(lp1374
(g1356
g1123
S'1'
S'I'
tp1375
a(dp1376
g7
I27
saa(lp1377
(g1356
g1127
S'1'
S'I'
tp1378
a(dp1379
g7
I27
saa(lp1380
(g1356
g1131
S'1'
S'I'
tp1381
a(dp1382
g7
I26
saa(lp1383
(g1356
g1135
S'1'
S'I'
tp1384
a(dp1385
g7
I26
saa(lp1386
(g1356
g1139
S'1'
S'I'
tp1387
a(dp1388
g7
I63
saa(lp1389
(g1356
g1143
S'1'
S'I'
tp1390
a(dp1391
g7
I8
saa(lp1392
(g1356
g1147
S'1'
S'I'
tp1393
a(dp1394
g7
I87
saa(lp1395
(g1356
g1151
S'1'
S'I'
tp1396
a(dp1397
g7
I60
saa(lp1398
(g1356
g1155
S'1'
S'I'
tp1399
a(dp1400
g7
I87
saa(lp1401
(g1356
g1159
S'1'
S'I'
tp1402
a(dp1403
g7
I87
saa(lp1404
(g1356
g1163
S'1'
S'I'
tp1405
a(dp1406
g7
I38
saa(lp1407
(g1356
g1167
S'1'
S'I'
tp1408
a(dp1409
g7
I2
saa(lp1410
(g1356
g1171
S'1'
S'I'
tp1411
a(dp1412
g7
I60
saa(lp1413
(g1356
g1175
S'1'
S'I'
tp1414
a(dp1415
g7
I8
saa(lp1416
(g1356
g1179
S'1'
S'I'
tp1417
a(dp1418
g7
I60
saa(lp1419
(g1356
g1183
S'1'
S'I'
tp1420
a(dp1421
g7
I8
saa(lp1422
(g1356
g1187
S'1'
S'I'
tp1423
a(dp1424
g7
I23
saa(lp1425
(g1356
g1191
S'1'
S'I'
tp1426
a(dp1427
g7
I87
saa(lp1428
(g1356
g1195
S'1'
S'I'
tp1429
a(dp1430
g7
I53
saa(lp1431
(g1356
g1199
S'1'
S'I'
tp1432
a(dp1433
g7
I4
saa(lp1434
(g1356
g1203
S'1'
S'I'
tp1435
a(dp1436
g7
I150
saa(lp1437
(g1356
g1207
S'1'
S'I'
tp1438
a(dp1439
g7
I23
saa(lp1440
(g1356
g1211
S'1'
S'I'
tp1441
a(dp1442
g7
I63
saa(lp1443
(g1356
g1215
S'1'
S'I'
tp1444
a(dp1445
g7
I150
saa(lp1446
(g1356
g1219
S'1'
S'I'
tp1447
a(dp1448
g7
I9
saa(lp1449
(g1356
g1223
S'1'
S'I'
tp1450
a(dp1451
g7
I9
saa(lp1452
(g1356
g1227
S'1'
S'I'
tp1453
a(dp1454
g7
I35
saa(lp1455
(S'Missile Rack'
p1456
NS'1'
S'B'
tp1457
a(dp1458
g7
I2
saa(lp1459
(g1456
NS'2'
S'B'
tp1460
a(dp1461
g7
I4
saa(lp1462
(S'Module Reinforcement Package'
p1463
NS'1'
S'D'
tp1464
a(dp1465
g7
I1
saa(lp1466
(g1463
NS'1'
S'E'
tp1467
a(dp1468
g7
I2
saa(lp1469
(g1463
NS'2'
S'D'
tp1470
a(dp1471
g7
I2
saa(lp1472
(g1463
NS'2'
S'E'
tp1473
a(dp1474
g7
I4
saa(lp1475
(g1463
NS'3'
S'D'
tp1476
a(dp1477
g7
I4
saa(lp1478
(g1463
NS'3'
S'E'
tp1479
a(dp1480
g7
I8
saa(lp1481
(g1463
NS'4'
S'D'
tp1482
a(dp1483
g7
I8
saa(lp1484
(g1463
NS'4'
S'E'
tp1485
a(dp1486
g7
I16
saa(lp1487
(g1463
NS'5'
S'D'
tp1488
a(dp1489
g7
I16
saa(lp1490
(g1463
NS'5'
S'E'
tp1491
a(dp1492
g7
I32
saa(lp1493
(S'Multi-Cannon'
p1494
NS'1'
S'F'
tp1495
a(dp1496
g7
I2
saa(lp1497
(g1494
NS'1'
S'G'
tp1498
a(dp1499
g7
I2
saa(lp1500
(g1494
NS'2'
S'E'
tp1501
a(dp1502
g7
I4
saa(lp1503
(g1494
NS'2'
S'F'
tp1504
a(dp1505
g7
I4
saa(lp1506
(g1494
NS'3'
S'C'
tp1507
a(dp1508
g7
I8
saa(lp1509
(g1494
NS'4'
S'A'
tp1510
a(dp1511
g7
I16
saa(lp1512
(S'Pacifier Frag-Cannon'
p1513
NS'3'
S'C'
tp1514
a(dp1515
g7
I8
saa(lp1516
(S'Pack-Hound Missile Rack'
p1517
NS'2'
S'B'
tp1518
a(dp1519
g7
I4
saa(lp1520
(S'Planetary Approach Suite'
p1521
NS'1'
S'I'
tp1522
a(dp1523
g7
I0
saa(lp1524
(S'Planetary Vehicle Hangar'
p1525
NS'2'
S'G'
tp1526
a(dp1527
g7
I6
saa(lp1528
(g1525
NS'2'
S'H'
tp1529
a(dp1530
g7
I12
saa(lp1531
(g1525
NS'4'
S'G'
tp1532
a(dp1533
g7
I10
saa(lp1534
(g1525
NS'4'
S'H'
tp1535
a(dp1536
g7
I20
saa(lp1537
(g1525
NS'6'
S'G'
tp1538
a(dp1539
g7
I17
saa(lp1540
(g1525
NS'6'
S'H'
tp1541
a(dp1542
g7
I34
saa(lp1543
(S'Plasma Accelerator'
p1544
NS'2'
S'C'
tp1545
a(dp1546
g7
I4
saa(lp1547
(g1544
NS'3'
S'B'
tp1548
a(dp1549
g7
I8
saa(lp1550
(g1544
NS'4'
S'A'
tp1551
a(dp1552
g7
I16
saa(lp1553
(S'Point Defence'
p1554
NS'0'
S'I'
tp1555
a(dp1556
g7
F0.5
saa(lp1557
(S'Power Distributor'
p1558
NS'1'
S'A'
tp1559
a(dp1560
g7
F1.3
saa(lp1561
(g1558
NS'1'
S'B'
tp1562
a(dp1563
g7
I2
saa(lp1564
(g1558
NS'1'
S'C'
tp1565
a(dp1566
g7
F1.3
saa(lp1567
(g1558
NS'1'
S'D'
tp1568
a(dp1569
g7
F0.5
saa(lp1570
(g1558
NS'1'
S'E'
tp1571
a(dp1572
g7
F1.3
saa(lp1573
(g1558
NS'2'
S'A'
tp1574
a(dp1575
g7
F2.5
saa(lp1576
(g1558
NS'2'
S'B'
tp1577
a(dp1578
g7
I4
saa(lp1579
(g1558
NS'2'
S'C'
tp1580
a(dp1581
g7
F2.5
saa(lp1582
(g1558
NS'2'
S'D'
tp1583
a(dp1584
g7
I1
saa(lp1585
(g1558
NS'2'
S'E'
tp1586
a(dp1587
g7
F2.5
saa(lp1588
(g1558
NS'3'
S'A'
tp1589
a(dp1590
g7
I5
saa(lp1591
(g1558
NS'3'
S'B'
tp1592
a(dp1593
g7
I8
saa(lp1594
(g1558
NS'3'
S'C'
tp1595
a(dp1596
g7
I5
saa(lp1597
(g1558
NS'3'
S'D'
tp1598
a(dp1599
g7
I2
saa(lp1600
(g1558
NS'3'
S'E'
tp1601
a(dp1602
g7
I5
saa(lp1603
(g1558
NS'4'
S'A'
tp1604
a(dp1605
g7
I10
saa(lp1606
(g1558
NS'4'
S'B'
tp1607
a(dp1608
g7
I16
saa(lp1609
(g1558
NS'4'
S'C'
tp1610
a(dp1611
g7
I10
saa(lp1612
(g1558
NS'4'
S'D'
tp1613
a(dp1614
g7
I4
saa(lp1615
(g1558
NS'4'
S'E'
tp1616
a(dp1617
g7
I10
saa(lp1618
(g1558
NS'5'
S'A'
tp1619
a(dp1620
g7
I20
saa(lp1621
(g1558
NS'5'
S'B'
tp1622
a(dp1623
g7
I32
saa(lp1624
(g1558
NS'5'
S'C'
tp1625
a(dp1626
g7
I20
saa(lp1627
(g1558
NS'5'
S'D'
tp1628
a(dp1629
g7
I8
saa(lp1630
(g1558
NS'5'
S'E'
tp1631
a(dp1632
g7
I20
saa(lp1633
(g1558
NS'6'
S'A'
tp1634
a(dp1635
g7
I40
saa(lp1636
(g1558
NS'6'
S'B'
tp1637
a(dp1638
g7
I64
saa(lp1639
(g1558
NS'6'
S'C'
tp1640
a(dp1641
g7
I40
saa(lp1642
(g1558
NS'6'
S'D'
tp1643
a(dp1644
g7
I16
saa(lp1645
(g1558
NS'6'
S'E'
tp1646
a(dp1647
g7
I40
saa(lp1648
(g1558
NS'7'
S'A'
tp1649
a(dp1650
g7
I80
saa(lp1651
(g1558
NS'7'
S'B'
tp1652
a(dp1653
g7
I128
saa(lp1654
(g1558
NS'7'
S'C'
tp1655
a(dp1656
g7
I80
saa(lp1657
(g1558
NS'7'
S'D'
tp1658
a(dp1659
g7
I32
saa(lp1660
(g1558
NS'7'
S'E'
tp1661
a(dp1662
g7
I80
saa(lp1663
(g1558
NS'8'
S'A'
tp1664
a(dp1665
g7
I160
saa(lp1666
(g1558
NS'8'
S'B'
tp1667
a(dp1668
g7
I256
saa(lp1669
(g1558
NS'8'
S'C'
tp1670
a(dp1671
g7
I160
saa(lp1672
(g1558
NS'8'
S'D'
tp1673
a(dp1674
g7
I64
saa(lp1675
(g1558
NS'8'
S'E'
tp1676
a(dp1677
g7
I160
saa(lp1678
(S'Power Plant'
p1679
NS'2'
S'A'
tp1680
a(dp1681
g7
F1.3
saa(lp1682
(g1679
NS'2'
S'B'
tp1683
a(dp1684
g7
I2
saa(lp1685
(g1679
NS'2'
S'C'
tp1686
a(dp1687
g7
F1.3
saa(lp1688
(g1679
NS'2'
S'D'
tp1689
a(dp1690
g7
I1
saa(lp1691
(g1679
NS'2'
S'E'
tp1692
a(dp1693
g7
F2.5
saa(lp1694
(g1679
NS'3'
S'A'
tp1695
a(dp1696
g7
F2.5
saa(lp1697
(g1679
NS'3'
S'B'
tp1698
a(dp1699
g7
I4
saa(lp1700
(g1679
NS'3'
S'C'
tp1701
a(dp1702
g7
F2.5
saa(lp1703
(g1679
NS'3'
S'D'
tp1704
a(dp1705
g7
I2
saa(lp1706
(g1679
NS'3'
S'E'
tp1707
a(dp1708
g7
I5
saa(lp1709
(g1679
NS'4'
S'A'
tp1710
a(dp1711
g7
I5
saa(lp1712
(g1679
NS'4'
S'B'
tp1713
a(dp1714
g7
I8
saa(lp1715
(g1679
NS'4'
S'C'
tp1716
a(dp1717
g7
I5
saa(lp1718
(g1679
NS'4'
S'D'
tp1719
a(dp1720
g7
I4
saa(lp1721
(g1679
NS'4'
S'E'
tp1722
a(dp1723
g7
I10
saa(lp1724
(g1679
NS'5'
S'A'
tp1725
a(dp1726
g7
I10
saa(lp1727
(g1679
NS'5'
S'B'
tp1728
a(dp1729
g7
I16
saa(lp1730
(g1679
NS'5'
S'C'
tp1731
a(dp1732
g7
I10
saa(lp1733
(g1679
NS'5'
S'D'
tp1734
a(dp1735
g7
I8
saa(lp1736
(g1679
NS'5'
S'E'
tp1737
a(dp1738
g7
I20
saa(lp1739
(g1679
NS'6'
S'A'
tp1740
a(dp1741
g7
I20
saa(lp1742
(g1679
NS'6'
S'B'
tp1743
a(dp1744
g7
I32
saa(lp1745
(g1679
NS'6'
S'C'
tp1746
a(dp1747
g7
I20
saa(lp1748
(g1679
NS'6'
S'D'
tp1749
a(dp1750
g7
I16
saa(lp1751
(g1679
NS'6'
S'E'
tp1752
a(dp1753
g7
I40
saa(lp1754
(g1679
NS'7'
S'A'
tp1755
a(dp1756
g7
I40
saa(lp1757
(g1679
NS'7'
S'B'
tp1758
a(dp1759
g7
I64
saa(lp1760
(g1679
NS'7'
S'C'
tp1761
a(dp1762
g7
I40
saa(lp1763
(g1679
NS'7'
S'D'
tp1764
a(dp1765
g7
I32
saa(lp1766
(g1679
NS'7'
S'E'
tp1767
a(dp1768
g7
I80
saa(lp1769
(g1679
NS'8'
S'A'
tp1770
a(dp1771
g7
I80
saa(lp1772
(g1679
NS'8'
S'B'
tp1773
a(dp1774
g7
I128
saa(lp1775
(g1679
NS'8'
S'C'
tp1776
a(dp1777
g7
I80
saa(lp1778
(g1679
NS'8'
S'D'
tp1779
a(dp1780
g7
I64
saa(lp1781
(g1679
NS'8'
S'E'
tp1782
a(dp1783
g7
I160
saa(lp1784
(S'Prismatic Shield Generator'
p1785
NS'1'
S'A'
tp1786
a(dp1787
g7
F2.5
saa(lp1788
(g1785
NS'2'
S'A'
tp1789
a(dp1790
g7
I5
saa(lp1791
(g1785
NS'3'
S'A'
tp1792
a(dp1793
g7
I10
saa(lp1794
(g1785
NS'4'
S'A'
tp1795
a(dp1796
g7
I20
saa(lp1797
(g1785
NS'5'
S'A'
tp1798
a(dp1799
g7
I40
saa(lp1800
(g1785
NS'6'
S'A'
tp1801
a(dp1802
g7
I80
saa(lp1803
(g1785
NS'7'
S'A'
tp1804
a(dp1805
g7
I160
saa(lp1806
(g1785
NS'8'
S'A'
tp1807
a(dp1808
g7
I320
saa(lp1809
(S'Prospector Limpet Controller'
p1810
NS'1'
S'A'
tp1811
a(dp1812
g7
F1.3
saa(lp1813
(g1810
NS'1'
S'B'
tp1814
a(dp1815
g7
I2
saa(lp1816
(g1810
NS'1'
S'C'
tp1817
a(dp1818
g7
F1.3
saa(lp1819
(g1810
NS'1'
S'D'
tp1820
a(dp1821
g7
F0.5
saa(lp1822
(g1810
NS'1'
S'E'
tp1823
a(dp1824
g7
F1.3
saa(lp1825
(g1810
NS'3'
S'A'
tp1826
a(dp1827
g7
I5
saa(lp1828
(g1810
NS'3'
S'B'
tp1829
a(dp1830
g7
I8
saa(lp1831
(g1810
NS'3'
S'C'
tp1832
a(dp1833
g7
I5
saa(lp1834
(g1810
NS'3'
S'D'
tp1835
a(dp1836
g7
I2
saa(lp1837
(g1810
NS'3'
S'E'
tp1838
a(dp1839
g7
I5
saa(lp1840
(g1810
NS'5'
S'A'
tp1841
a(dp1842
g7
I20
saa(lp1843
(g1810
NS'5'
S'B'
tp1844
a(dp1845
g7
I32
saa(lp1846
(g1810
NS'5'
S'C'
tp1847
a(dp1848
g7
I20
saa(lp1849
(g1810
NS'5'
S'D'
tp1850
a(dp1851
g7
I8
saa(lp1852
(g1810
NS'5'
S'E'
tp1853
a(dp1854
g7
I20
saa(lp1855
(g1810
NS'7'
S'A'
tp1856
a(dp1857
g7
I80
saa(lp1858
(g1810
NS'7'
S'B'
tp1859
a(dp1860
g7
I128
saa(lp1861
(g1810
NS'7'
S'C'
tp1862
a(dp1863
g7
I80
saa(lp1864
(g1810
NS'7'
S'D'
tp1865
a(dp1866
g7
I32
saa(lp1867
(g1810
NS'7'
S'E'
tp1868
a(dp1869
g7
I80
saa(lp1870
(S'Pulse Disruptor Laser'
p1871
NS'2'
S'E'
tp1872
a(dp1873
g7
I4
saa(lp1874
(S'Pulse Laser'
p1875
NS'1'
S'F'
tp1876
a(dp1877
g7
I2
saa(lp1878
(g1875
NS'1'
S'G'
tp1879
a(dp1880
g7
I2
saa(lp1881
(g1875
NS'2'
S'E'
tp1882
a(dp1883
g7
I4
saa(lp1884
(g1875
NS'2'
S'F'
tp1885
a(dp1886
g7
I4
saa(lp1887
(g1875
NS'3'
S'D'
tp1888
a(dp1889
g7
I8
saa(lp1890
(g1875
NS'3'
S'E'
tp1891
a(dp1892
g7
I8
saa(lp1893
(g1875
NS'3'
S'F'
tp1894
a(dp1895
g7
I8
saa(lp1896
(g1875
NS'4'
S'A'
tp1897
a(dp1898
g7
I16
saa(lp1899
(S'Rail Gun'
p1900
NS'1'
S'D'
tp1901
a(dp1902
g7
I2
saa(lp1903
(g1900
NS'2'
S'B'
tp1904
a(dp1905
g7
I4
saa(lp1906
(S'Reactive Surface Composite'
p1907
g1099
S'1'
S'I'
tp1908
a(dp1909
g7
I5
saa(lp1910
(g1907
g1103
S'1'
S'I'
tp1911
a(dp1912
g7
I150
saa(lp1913
(g1907
g1107
S'1'
S'I'
tp1914
a(dp1915
g7
I60
saa(lp1916
(g1907
g1111
S'1'
S'I'
tp1917
a(dp1918
g7
I42
saa(lp1919
(g1907
g1115
S'1'
S'I'
tp1920
a(dp1921
g7
I42
saa(lp1922
(g1907
g1119
S'1'
S'I'
tp1923
a(dp1924
g7
I165
saa(lp1925
(g1907
g1123
S'1'
S'I'
tp1926
a(dp1927
g7
I27
saa(lp1928
(g1907
g1127
S'1'
S'I'
tp1929
a(dp1930
g7
I27
saa(lp1931
(g1907
g1131
S'1'
S'I'
tp1932
a(dp1933
g7
I47
saa(lp1934
(g1907
g1135
S'1'
S'I'
tp1935
a(dp1936
g7
I26
saa(lp1937
(g1907
g1139
S'1'
S'I'
tp1938
a(dp1939
g7
I63
saa(lp1940
(g1907
g1143
S'1'
S'I'
tp1941
a(dp1942
g7
I8
saa(lp1943
(g1907
g1147
S'1'
S'I'
tp1944
a(dp1945
g7
I87
saa(lp1946
(g1907
g1151
S'1'
S'I'
tp1947
a(dp1948
g7
I60
saa(lp1949
(g1907
g1155
S'1'
S'I'
tp1950
a(dp1951
g7
I87
saa(lp1952
(g1907
g1159
S'1'
S'I'
tp1953
a(dp1954
g7
I87
saa(lp1955
(g1907
g1163
S'1'
S'I'
tp1956
a(dp1957
g7
I38
saa(lp1958
(g1907
g1167
S'1'
S'I'
tp1959
a(dp1960
g7
I2
saa(lp1961
(g1907
g1171
S'1'
S'I'
tp1962
a(dp1963
g7
I60
saa(lp1964
(g1907
g1175
S'1'
S'I'
tp1965
a(dp1966
g7
I8
saa(lp1967
(g1907
g1179
S'1'
S'I'
tp1968
a(dp1969
g7
I60
saa(lp1970
(g1907
g1183
S'1'
S'I'
tp1971
a(dp1972
g7
I8
saa(lp1973
(g1907
g1187
S'1'
S'I'
tp1974
a(dp1975
g7
I23
saa(lp1976
(g1907
g1191
S'1'
S'I'
tp1977
a(dp1978
g7
I87
saa(lp1979
(g1907
g1195
S'1'
S'I'
tp1980
a(dp1981
g7
I53
saa(lp1982
(g1907
g1199
S'1'
S'I'
tp1983
a(dp1984
g7
I4
saa(lp1985
(g1907
g1203
S'1'
S'I'
tp1986
a(dp1987
g7
I150
saa(lp1988
(g1907
g1207
S'1'
S'I'
tp1989
a(dp1990
g7
I23
saa(lp1991
(g1907
g1211
S'1'
S'I'
tp1992
a(dp1993
g7
I63
saa(lp1994
(g1907
g1215
S'1'
S'I'
tp1995
a(dp1996
g7
I150
saa(lp1997
(g1907
g1219
S'1'
S'I'
tp1998
a(dp1999
g7
I9
saa(lp2000
(g1907
g1223
S'1'
S'I'
tp2001
a(dp2002
g7
I9
saa(lp2003
(g1907
g1227
S'1'
S'I'
tp2004
a(dp2005
g7
I35
saa(lp2006
(S'Recon Limpet Controller'
p2007
NS'1'
S'E'
tp2008
a(dp2009
g7
F1.3
saa(lp2010
(g2007
NS'3'
S'E'
tp2011
a(dp2012
g7
I2
saa(lp2013
(g2007
NS'5'
S'E'
tp2014
a(dp2015
g7
I20
saa(lp2016
(g2007
NS'7'
S'E'
tp2017
a(dp2018
g7
I128
saa(lp2019
(S'Refinery'
p2020
NS'1'
S'A'
tp2021
a(dp2022
g7
I0
saa(lp2023
(g2020
NS'1'
S'B'
tp2024
a(dp2025
g7
I0
saa(lp2026
(g2020
NS'1'
S'C'
tp2027
a(dp2028
g7
I0
saa(lp2029
(g2020
NS'1'
S'D'
tp2030
a(dp2031
g7
I0
saa(lp2032
(g2020
NS'1'
S'E'
tp2033
a(dp2034
g7
I0
saa(lp2035
(g2020
NS'2'
S'A'
tp2036
a(dp2037
g7
I0
saa(lp2038
(g2020
NS'2'
S'B'
tp2039
a(dp2040
g7
I0
saa(lp2041
(g2020
NS'2'
S'C'
tp2042
a(dp2043
g7
I0
saa(lp2044
(g2020
NS'2'
S'D'
tp2045
a(dp2046
g7
I0
saa(lp2047
(g2020
NS'2'
S'E'
tp2048
a(dp2049
g7
I0
saa(lp2050
(g2020
NS'3'
S'A'
tp2051
a(dp2052
g7
I0
saa(lp2053
(g2020
NS'3'
S'B'
tp2054
a(dp2055
g7
I0
saa(lp2056
(g2020
NS'3'
S'C'
tp2057
a(dp2058
g7
I0
saa(lp2059
(g2020
NS'3'
S'D'
tp2060
a(dp2061
g7
I0
saa(lp2062
(g2020
NS'3'
S'E'
tp2063
a(dp2064
g7
I0
saa(lp2065
(g2020
NS'4'
S'A'
tp2066
a(dp2067
g7
I0
saa(lp2068
(g2020
NS'4'
S'B'
tp2069
a(dp2070
g7
I0
saa(lp2071
(g2020
NS'4'
S'C'
tp2072
a(dp2073
g7
I0
saa(lp2074
(g2020
NS'4'
S'D'
tp2075
a(dp2076
g7
I0
saa(lp2077
(g2020
NS'4'
S'E'
tp2078
a(dp2079
g7
I0
saa(lp2080
(S'Reinforced Alloy'
p2081
g1099
S'1'
S'I'
tp2082
a(dp2083
g7
I3
saa(lp2084
(g2081
g1103
S'1'
S'I'
tp2085
a(dp2086
g7
I75
saa(lp2087
(g2081
g1107
S'1'
S'I'
tp2088
a(dp2089
g7
I30
saa(lp2090
(g2081
g1111
S'1'
S'I'
tp2091
a(dp2092
g7
I21
saa(lp2093
(g2081
g1115
S'1'
S'I'
tp2094
a(dp2095
g7
I21
saa(lp2096
(g2081
g1119
S'1'
S'I'
tp2097
a(dp2098
g7
I83
saa(lp2099
(g2081
g1123
S'1'
S'I'
tp2100
a(dp2101
g7
I14
saa(lp2102
(g2081
g1127
S'1'
S'I'
tp2103
a(dp2104
g7
I14
saa(lp2105
(g2081
g1131
S'1'
S'I'
tp2106
a(dp2107
g7
I23
saa(lp2108
(g2081
g1135
S'1'
S'I'
tp2109
a(dp2110
g7
I13
saa(lp2111
(g2081
g1139
S'1'
S'I'
tp2112
a(dp2113
g7
I32
saa(lp2114
(g2081
g1143
S'1'
S'I'
tp2115
a(dp2116
g7
I4
saa(lp2117
(g2081
g1147
S'1'
S'I'
tp2118
a(dp2119
g7
I44
saa(lp2120
(g2081
g1151
S'1'
S'I'
tp2121
a(dp2122
g7
I30
saa(lp2123
(g2081
g1155
S'1'
S'I'
tp2124
a(dp2125
g7
I44
saa(lp2126
(g2081
g1159
S'1'
S'I'
tp2127
a(dp2128
g7
I44
saa(lp2129
(g2081
g1163
S'1'
S'I'
tp2130
a(dp2131
g7
I19
saa(lp2132
(g2081
g1167
S'1'
S'I'
tp2133
a(dp2134
g7
I1
saa(lp2135
(g2081
g1171
S'1'
S'I'
tp2136
a(dp2137
g7
I30
saa(lp2138
(g2081
g1175
S'1'
S'I'
tp2139
a(dp2140
g7
I4
saa(lp2141
(g2081
g1179
S'1'
S'I'
tp2142
a(dp2143
g7
I30
saa(lp2144
(g2081
g1183
S'1'
S'I'
tp2145
a(dp2146
g7
I4
saa(lp2147
(g2081
g1187
S'1'
S'I'
tp2148
a(dp2149
g7
I12
saa(lp2150
(g2081
g1191
S'1'
S'I'
tp2151
a(dp2152
g7
I21
saa(lp2153
(g2081
g1195
S'1'
S'I'
tp2154
a(dp2155
g7
I26
saa(lp2156
(g2081
g1199
S'1'
S'I'
tp2157
a(dp2158
g7
I2
saa(lp2159
(g2081
g1203
S'1'
S'I'
tp2160
a(dp2161
g7
I75
saa(lp2162
(g2081
g1207
S'1'
S'I'
tp2163
a(dp2164
g7
I12
saa(lp2165
(g2081
g1211
S'1'
S'I'
tp2166
a(dp2167
g7
I32
saa(lp2168
(g2081
g1215
S'1'
S'I'
tp2169
a(dp2170
g7
I75
saa(lp2171
(g2081
g1219
S'1'
S'I'
tp2172
a(dp2173
g7
I5
saa(lp2174
(g2081
g1223
S'1'
S'I'
tp2175
a(dp2176
g7
I5
saa(lp2177
(g2081
g1227
S'1'
S'I'
tp2178
a(dp2179
g7
I17
saa(lp2180
(S'Remote Release Flak Launcher'
p2181
NS'2'
S'B'
tp2182
a(dp2183
g7
I4
saa(lp2184
(S'Repair Limpet Controller'
p2185
NS'1'
S'A'
tp2186
a(dp2187
g7
F1.3
saa(lp2188
(g2185
NS'1'
S'B'
tp2189
a(dp2190
g7
I2
saa(lp2191
(g2185
NS'1'
S'C'
tp2192
a(dp2193
g7
F1.3
saa(lp2194
(g2185
NS'1'
S'D'
tp2195
a(dp2196
g7
F0.5
saa(lp2197
(g2185
NS'1'
S'E'
tp2198
a(dp2199
g7
F1.3
saa(lp2200
(g2185
NS'3'
S'A'
tp2201
a(dp2202
g7
I5
saa(lp2203
(g2185
NS'3'
S'B'
tp2204
a(dp2205
g7
I8
saa(lp2206
(g2185
NS'3'
S'C'
tp2207
a(dp2208
g7
I5
saa(lp2209
(g2185
NS'3'
S'D'
tp2210
a(dp2211
g7
I2
saa(lp2212
(g2185
NS'3'
S'E'
tp2213
a(dp2214
g7
I5
saa(lp2215
(g2185
NS'5'
S'A'
tp2216
a(dp2217
g7
I20
saa(lp2218
(g2185
NS'5'
S'B'
tp2219
a(dp2220
g7
I32
saa(lp2221
(g2185
NS'5'
S'C'
tp2222
a(dp2223
g7
I20
saa(lp2224
(g2185
NS'5'
S'D'
tp2225
a(dp2226
g7
I8
saa(lp2227
(g2185
NS'5'
S'E'
tp2228
a(dp2229
g7
I20
saa(lp2230
(g2185
NS'7'
S'A'
tp2231
a(dp2232
g7
I80
saa(lp2233
(g2185
NS'7'
S'B'
tp2234
a(dp2235
g7
I128
saa(lp2236
(g2185
NS'7'
S'C'
tp2237
a(dp2238
g7
I80
saa(lp2239
(g2185
NS'7'
S'D'
tp2240
a(dp2241
g7
I32
saa(lp2242
(g2185
NS'7'
S'E'
tp2243
a(dp2244
g7
I80
saa(lp2245
(S'Research Limpet Controller'
p2246
NS'1'
S'E'
tp2247
a(dp2248
g7
F1.3
saa(lp2249
(S'Retributor Beam Laser'
p2250
NS'1'
S'E'
tp2251
a(dp2252
g7
I2
saa(lp2253
(S'Rocket Propelled FSD Disruptor'
p2254
NS'2'
S'B'
tp2255
a(dp2256
g7
I4
saa(lp2257
(S'Sensors'
p2258
NS'1'
S'A'
tp2259
a(dp2260
g7
F1.3
saa(lp2261
(g2258
NS'1'
S'B'
tp2262
a(dp2263
g7
I2
saa(lp2264
(g2258
NS'1'
S'C'
tp2265
a(dp2266
g7
F1.3
saa(lp2267
(g2258
NS'1'
S'D'
tp2268
a(dp2269
g7
F0.5
saa(lp2270
(g2258
NS'1'
S'E'
tp2271
a(dp2272
g7
F1.3
saa(lp2273
(g2258
NS'2'
S'A'
tp2274
a(dp2275
g7
F2.5
saa(lp2276
(g2258
NS'2'
S'B'
tp2277
a(dp2278
g7
I4
saa(lp2279
(g2258
NS'2'
S'C'
tp2280
a(dp2281
g7
F2.5
saa(lp2282
(g2258
NS'2'
S'D'
tp2283
a(dp2284
g7
I1
saa(lp2285
(g2258
NS'2'
S'E'
tp2286
a(dp2287
g7
F2.5
saa(lp2288
(g2258
NS'3'
S'A'
tp2289
a(dp2290
g7
I5
saa(lp2291
(g2258
NS'3'
S'B'
tp2292
a(dp2293
g7
I8
saa(lp2294
(g2258
NS'3'
S'C'
tp2295
a(dp2296
g7
I5
saa(lp2297
(g2258
NS'3'
S'D'
tp2298
a(dp2299
g7
I2
saa(lp2300
(g2258
NS'3'
S'E'
tp2301
a(dp2302
g7
I5
saa(lp2303
(g2258
NS'4'
S'A'
tp2304
a(dp2305
g7
I10
saa(lp2306
(g2258
NS'4'
S'B'
tp2307
a(dp2308
g7
I16
saa(lp2309
(g2258
NS'4'
S'C'
tp2310
a(dp2311
g7
I10
saa(lp2312
(g2258
NS'4'
S'D'
tp2313
a(dp2314
g7
I4
saa(lp2315
(g2258
NS'4'
S'E'
tp2316
a(dp2317
g7
I10
saa(lp2318
(g2258
NS'5'
S'A'
tp2319
a(dp2320
g7
I20
saa(lp2321
(g2258
NS'5'
S'B'
tp2322
a(dp2323
g7
I32
saa(lp2324
(g2258
NS'5'
S'C'
tp2325
a(dp2326
g7
I20
saa(lp2327
(g2258
NS'5'
S'D'
tp2328
a(dp2329
g7
I8
saa(lp2330
(g2258
NS'5'
S'E'
tp2331
a(dp2332
g7
I20
saa(lp2333
(g2258
NS'6'
S'A'
tp2334
a(dp2335
g7
I40
saa(lp2336
(g2258
NS'6'
S'B'
tp2337
a(dp2338
g7
I64
saa(lp2339
(g2258
NS'6'
S'C'
tp2340
a(dp2341
g7
I40
saa(lp2342
(g2258
NS'6'
S'D'
tp2343
a(dp2344
g7
I16
saa(lp2345
(g2258
NS'6'
S'E'
tp2346
a(dp2347
g7
I40
saa(lp2348
(g2258
NS'7'
S'A'
tp2349
a(dp2350
g7
I80
saa(lp2351
(g2258
NS'7'
S'B'
tp2352
a(dp2353
g7
I128
saa(lp2354
(g2258
NS'7'
S'C'
tp2355
a(dp2356
g7
I80
saa(lp2357
(g2258
NS'7'
S'D'
tp2358
a(dp2359
g7
I32
saa(lp2360
(g2258
NS'7'
S'E'
tp2361
a(dp2362
g7
I80
saa(lp2363
(g2258
NS'8'
S'A'
tp2364
a(dp2365
g7
I160
saa(lp2366
(g2258
NS'8'
S'B'
tp2367
a(dp2368
g7
I256
saa(lp2369
(g2258
NS'8'
S'C'
tp2370
a(dp2371
g7
I160
saa(lp2372
(g2258
NS'8'
S'D'
tp2373
a(dp2374
g7
I64
saa(lp2375
(g2258
NS'8'
S'E'
tp2376
a(dp2377
g7
I160
saa(lp2378
(S'Shield Booster'
p2379
NS'0'
S'A'
tp2380
a(dp2381
g7
F3.5
saa(lp2382
(g2379
NS'0'
S'B'
tp2383
a(dp2384
g7
I3
saa(lp2385
(g2379
NS'0'
S'C'
tp2386
a(dp2387
g7
I2
saa(lp2388
(g2379
NS'0'
S'D'
tp2389
a(dp2390
g7
I1
saa(lp2391
(g2379
NS'0'
S'E'
tp2392
a(dp2393
g7
F0.5
saa(lp2394
(S'Shield Cell Bank'
p2395
NS'1'
S'A'
tp2396
a(dp2397
g7
F1.3
saa(lp2398
(g2395
NS'1'
S'B'
tp2399
a(dp2400
g7
I2
saa(lp2401
(g2395
NS'1'
S'C'
tp2402
a(dp2403
g7
F1.3
saa(lp2404
(g2395
NS'1'
S'D'
tp2405
a(dp2406
g7
F0.5
saa(lp2407
(g2395
NS'1'
S'E'
tp2408
a(dp2409
g7
F1.3
saa(lp2410
(g2395
NS'2'
S'A'
tp2411
a(dp2412
g7
F2.5
saa(lp2413
(g2395
NS'2'
S'B'
tp2414
a(dp2415
g7
I4
saa(lp2416
(g2395
NS'2'
S'C'
tp2417
a(dp2418
g7
F2.5
saa(lp2419
(g2395
NS'2'
S'D'
tp2420
a(dp2421
g7
I1
saa(lp2422
(g2395
NS'2'
S'E'
tp2423
a(dp2424
g7
F2.5
saa(lp2425
(g2395
NS'3'
S'A'
tp2426
a(dp2427
g7
I5
saa(lp2428
(g2395
NS'3'
S'B'
tp2429
a(dp2430
g7
I8
saa(lp2431
(g2395
NS'3'
S'C'
tp2432
a(dp2433
g7
I5
saa(lp2434
(g2395
NS'3'
S'D'
tp2435
a(dp2436
g7
I2
saa(lp2437
(g2395
NS'3'
S'E'
tp2438
a(dp2439
g7
I5
saa(lp2440
(g2395
NS'4'
S'A'
tp2441
a(dp2442
g7
I10
saa(lp2443
(g2395
NS'4'
S'B'
tp2444
a(dp2445
g7
I16
saa(lp2446
(g2395
NS'4'
S'C'
tp2447
a(dp2448
g7
I10
saa(lp2449
(g2395
NS'4'
S'D'
tp2450
a(dp2451
g7
I4
saa(lp2452
(g2395
NS'4'
S'E'
tp2453
a(dp2454
g7
I10
saa(lp2455
(g2395
NS'5'
S'A'
tp2456
a(dp2457
g7
I20
saa(lp2458
(g2395
NS'5'
S'B'
tp2459
a(dp2460
g7
I32
saa(lp2461
(g2395
NS'5'
S'C'
tp2462
a(dp2463
g7
I20
saa(lp2464
(g2395
NS'5'
S'D'
tp2465
a(dp2466
g7
I8
saa(lp2467
(g2395
NS'5'
S'E'
tp2468
a(dp2469
g7
I20
saa(lp2470
(g2395
NS'6'
S'A'
tp2471
a(dp2472
g7
I40
saa(lp2473
(g2395
NS'6'
S'B'
tp2474
a(dp2475
g7
I64
saa(lp2476
(g2395
NS'6'
S'C'
tp2477
a(dp2478
g7
I40
saa(lp2479
(g2395
NS'6'
S'D'
tp2480
a(dp2481
g7
I16
saa(lp2482
(g2395
NS'6'
S'E'
tp2483
a(dp2484
g7
I40
saa(lp2485
(g2395
NS'7'
S'A'
tp2486
a(dp2487
g7
I80
saa(lp2488
(g2395
NS'7'
S'B'
tp2489
a(dp2490
g7
I128
saa(lp2491
(g2395
NS'7'
S'C'
tp2492
a(dp2493
g7
I80
saa(lp2494
(g2395
NS'7'
S'D'
tp2495
a(dp2496
g7
I32
saa(lp2497
(g2395
NS'7'
S'E'
tp2498
a(dp2499
g7
I80
saa(lp2500
(g2395
NS'8'
S'A'
tp2501
a(dp2502
g7
I160
saa(lp2503
(g2395
NS'8'
S'B'
tp2504
a(dp2505
g7
I256
saa(lp2506
(g2395
NS'8'
S'C'
tp2507
a(dp2508
g7
I160
saa(lp2509
(g2395
NS'8'
S'D'
tp2510
a(dp2511
g7
I64
saa(lp2512
(g2395
NS'8'
S'E'
tp2513
a(dp2514
g7
I160
saa(lp2515
(S'Shield Generator'
p2516
NS'1'
S'A'
tp2517
a(dp2518
g7
F1.3
saa(lp2519
(g2516
NS'2'
S'A'
tp2520
a(dp2521
g7
F2.5
saa(lp2522
(g2516
NS'2'
S'B'
tp2523
a(dp2524
g7
I4
saa(lp2525
(g2516
NS'2'
S'C'
tp2526
a(dp2527
g7
F2.5
saa(lp2528
(g2516
NS'2'
S'D'
tp2529
a(dp2530
g7
I1
saa(lp2531
(g2516
NS'2'
S'E'
tp2532
a(dp2533
g7
F2.5
saa(lp2534
(g2516
NS'3'
S'A'
tp2535
a(dp2536
g7
I5
saa(lp2537
(g2516
NS'3'
S'B'
tp2538
a(dp2539
g7
I8
saa(lp2540
(g2516
NS'3'
S'C'
tp2541
a(dp2542
g7
I5
saa(lp2543
(g2516
NS'3'
S'D'
tp2544
a(dp2545
g7
I2
saa(lp2546
(g2516
NS'3'
S'E'
tp2547
a(dp2548
g7
I5
saa(lp2549
(g2516
NS'4'
S'A'
tp2550
a(dp2551
g7
I10
saa(lp2552
(g2516
NS'4'
S'B'
tp2553
a(dp2554
g7
I16
saa(lp2555
(g2516
NS'4'
S'C'
tp2556
a(dp2557
g7
I10
saa(lp2558
(g2516
NS'4'
S'D'
tp2559
a(dp2560
g7
I4
saa(lp2561
(g2516
NS'4'
S'E'
tp2562
a(dp2563
g7
I10
saa(lp2564
(g2516
NS'5'
S'A'
tp2565
a(dp2566
g7
I20
saa(lp2567
(g2516
NS'5'
S'B'
tp2568
a(dp2569
g7
I32
saa(lp2570
(g2516
NS'5'
S'C'
tp2571
a(dp2572
g7
I20
saa(lp2573
(g2516
NS'5'
S'D'
tp2574
a(dp2575
g7
I8
saa(lp2576
(g2516
NS'5'
S'E'
tp2577
a(dp2578
g7
I20
saa(lp2579
(g2516
NS'6'
S'A'
tp2580
a(dp2581
g7
I40
saa(lp2582
(g2516
NS'6'
S'B'
tp2583
a(dp2584
g7
I64
saa(lp2585
(g2516
NS'6'
S'C'
tp2586
a(dp2587
g7
I40
saa(lp2588
(g2516
NS'6'
S'D'
tp2589
a(dp2590
g7
I16
saa(lp2591
(g2516
NS'6'
S'E'
tp2592
a(dp2593
g7
I40
saa(lp2594
(g2516
NS'7'
S'A'
tp2595
a(dp2596
g7
I80
saa(lp2597
(g2516
NS'7'
S'B'
tp2598
a(dp2599
g7
I128
saa(lp2600
(g2516
NS'7'
S'C'
tp2601
a(dp2602
g7
I80
saa(lp2603
(g2516
NS'7'
S'D'
tp2604
a(dp2605
g7
I32
saa(lp2606
(g2516
NS'7'
S'E'
tp2607
a(dp2608
g7
I80
saa(lp2609
(g2516
NS'8'
S'A'
tp2610
a(dp2611
g7
I160
saa(lp2612
(g2516
NS'8'
S'B'
tp2613
a(dp2614
g7
I256
saa(lp2615
(g2516
NS'8'
S'C'
tp2616
a(dp2617
g7
I160
saa(lp2618
(g2516
NS'8'
S'D'
tp2619
a(dp2620
g7
I64
saa(lp2621
(g2516
NS'8'
S'E'
tp2622
a(dp2623
g7
I160
saa(lp2624
(S'Shock Mine Launcher'
p2625
NS'1'
S'I'
tp2626
a(dp2627
g7
I2
saa(lp2628
(S'Shutdown Field Neutraliser'
p2629
NS'0'
S'F'
tp2630
a(dp2631
g7
F1.3
saa(lp2632
(S'Standard Docking Computer'
p2633
NS'1'
S'E'
tp2634
a(dp2635
g7
I0
saa(lp2636
(S'Thrusters'
p2637
NS'2'
S'A'
tp2638
a(dp2639
g7
F2.5
saa(lp2640
(g2637
NS'2'
S'B'
tp2641
a(dp2642
g7
I4
saa(lp2643
(g2637
NS'2'
S'C'
tp2644
a(dp2645
g7
F2.5
saa(lp2646
(g2637
NS'2'
S'D'
tp2647
a(dp2648
g7
I1
saa(lp2649
(g2637
NS'2'
S'E'
tp2650
a(dp2651
g7
F2.5
saa(lp2652
(g2637
NS'3'
S'A'
tp2653
a(dp2654
g7
I5
saa(lp2655
(g2637
NS'3'
S'B'
tp2656
a(dp2657
g7
I8
saa(lp2658
(g2637
NS'3'
S'C'
tp2659
a(dp2660
g7
I5
saa(lp2661
(g2637
NS'3'
S'D'
tp2662
a(dp2663
g7
I2
saa(lp2664
(g2637
NS'3'
S'E'
tp2665
a(dp2666
g7
I5
saa(lp2667
(g2637
NS'4'
S'A'
tp2668
a(dp2669
g7
I10
saa(lp2670
(g2637
NS'4'
S'B'
tp2671
a(dp2672
g7
I16
saa(lp2673
(g2637
NS'4'
S'C'
tp2674
a(dp2675
g7
I10
saa(lp2676
(g2637
NS'4'
S'D'
tp2677
a(dp2678
g7
I4
saa(lp2679
(g2637
NS'4'
S'E'
tp2680
a(dp2681
g7
I10
saa(lp2682
(g2637
NS'5'
S'A'
tp2683
a(dp2684
g7
I20
saa(lp2685
(g2637
NS'5'
S'B'
tp2686
a(dp2687
g7
I32
saa(lp2688
(g2637
NS'5'
S'C'
tp2689
a(dp2690
g7
I20
saa(lp2691
(g2637
NS'5'
S'D'
tp2692
a(dp2693
g7
I8
saa(lp2694
(g2637
NS'5'
S'E'
tp2695
a(dp2696
g7
I20
saa(lp2697
(g2637
NS'6'
S'A'
tp2698
a(dp2699
g7
I40
saa(lp2700
(g2637
NS'6'
S'B'
tp2701
a(dp2702
g7
I64
saa(lp2703
(g2637
NS'6'
S'C'
tp2704
a(dp2705
g7
I40
saa(lp2706
(g2637
NS'6'
S'D'
tp2707
a(dp2708
g7
I16
saa(lp2709
(g2637
NS'6'
S'E'
tp2710
a(dp2711
g7
I40
saa(lp2712
(g2637
NS'7'
S'A'
tp2713
a(dp2714
g7
I80
saa(lp2715
(g2637
NS'7'
S'B'
tp2716
a(dp2717
g7
I128
saa(lp2718
(g2637
NS'7'
S'C'
tp2719
a(dp2720
g7
I80
saa(lp2721
(g2637
NS'7'
S'D'
tp2722
a(dp2723
g7
I32
saa(lp2724
(g2637
NS'7'
S'E'
tp2725
a(dp2726
g7
I80
saa(lp2727
(g2637
NS'8'
S'A'
tp2728
a(dp2729
g7
I160
saa(lp2730
(g2637
NS'8'
S'B'
tp2731
a(dp2732
g7
I256
saa(lp2733
(g2637
NS'8'
S'C'
tp2734
a(dp2735
g7
I160
saa(lp2736
(g2637
NS'8'
S'D'
tp2737
a(dp2738
g7
I64
saa(lp2739
(g2637
NS'8'
S'E'
tp2740
a(dp2741
g7
I160
saa(lp2742
(S'Torpedo Pylon'
p2743
NS'1'
S'I'
tp2744
a(dp2745
g7
I2
saa(lp2746
(g2743
NS'2'
S'I'
tp2747
a(dp2748
g7
I4
saa(lp2749
(S'Xeno Scanner'
p2750
NS'0'
S'E'
tp2751
a(dp2752
g7
F1.3
saatRp2753
.