ccollections
OrderedDict
p1
((lp2
(lp3
(S'AX Missile Rack'
p4
NS'2'
S'B'
tp5
a(dp6
S'mass'
p7
I4
saa(lp8
(S'AX Multi-Cannon'
p9
NS'2'
S'E'
tp10
a(dp11
g7
I4
saa(lp12
(g9
NS'2'
S'F'
tp13
a(dp14
g7
I4
saa(lp15
(S'Advanced Discovery Scanner'
p16
NS'1'
S'C'
tp17
a(dp18
g7
I2
saa(lp19
(S'Advanced Plasma Accelerator'
p20
NS'3'
S'B'
tp21
a(dp22
g7
I8
saa(lp23
(S'Auto Field-Maintenance Unit'
p24
NS'1'
S'A'
tp25
a(dp26
g7
I0
saa(lp27
(g24
NS'1'
S'B'
tp28
a(dp29
g7
I0
saa(lp30
(g24
NS'1'
S'C'
tp31
a(dp32
g7
I0
saa(lp33
(g24
NS'1'
S'D'
tp34
a(dp35
g7
I0
saa(lp36
(g24
NS'1'
S'E'
tp37
a(dp38
g7
I0
saa(lp39
(g24
NS'2'
S'A'
tp40
a(dp41
g7
I0
saa(lp42
(g24
NS'2'
S'B'
tp43
a(dp44
g7
I0
saa(lp45
(g24
NS'2'
S'C'
tp46
a(dp47
g7
I0
saa(lp48
(g24
NS'2'
S'D'
tp49
a(dp50
g7
I0
saa(lp51
(g24
NS'2'
S'E'
tp52
a(dp53
g7
I0
saa(lp54
(g24
NS'3'
S'A'
tp55
a(dp56
g7
I0
saa(lp57
(g24
NS'3'
S'B'
tp58
a(dp59
g7
I0
saa(lp60
(g24
NS'3'
S'C'
tp61
a(dp62
g7
I0
saa(lp63
(g24
NS'3'
S'D'
tp64
a(dp65
g7
I0
saa(lp66
(g24
NS'3'
S'E'
tp67
a(dp68
g7
I0
saa(lp69
(g24
NS'4'
S'A'
tp70
a(dp71
g7
I0
saa(lp72
(g24
NS'4'
S'B'
tp73
a(dp74
g7
I0
saa(lp75
(g24
NS'4'
S'C'
tp76
a(dp77
g7
I0
saa(lp78
(g24
NS'4'
S'D'
tp79
a(dp80
g7
I0
saa(lp81
(g24
NS'4'
S'E'
tp82
a(dp83
g7
I0
saa(lp84
(g24
NS'5'
S'A'
tp85
a(dp86
g7
I0
saa(lp87
(g24
NS'5'
S'B'
tp88
a(dp89
g7
I0
saa(lp90
(g24
NS'5'
S'C'
tp91
a(dp92
g7
I0
saa(lp93
(g24
NS'5'
S'D'
tp94
a(dp95
g7
I0
saa(lp96
(g24
NS'5'
S'E'
tp97
a(dp98
g7
I0
saa(lp99
(g24
NS'6'
S'A'
tp100
a(dp101
g7
I0
saa(lp102
(g24
NS'6'
S'B'
tp103
a(dp104
g7
I0
saa(lp105
(g24
NS'6'
S'C'
tp106
a(dp107
g7
I0
saa(lp108
(g24
NS'6'
S'D'
tp109
a(dp110
g7
I0
saa(lp111
(g24
NS'6'
S'E'
tp112
a(dp113
g7
I0
saa(lp114
(g24
NS'7'
S'A'
tp115
a(dp116
g7
I0
saa(lp117
(g24
NS'7'
S'B'
tp118
a(dp119
g7
I0
saa(lp120
(g24
NS'7'
S'C'
tp121
a(dp122
g7
I0
saa(lp123
(g24
NS'7'
S'D'
tp124
a(dp125
g7
I0
saa(lp126
(g24
NS'7'
S'E'
tp127
a(dp128
g7
I0
saa(lp129
(g24
NS'8'
S'A'
tp130
a(dp131
g7
I0
saa(lp132
(g24
NS'8'
S'B'
tp133
a(dp134
g7
I0
saa(lp135
(g24
NS'8'
S'C'
tp136
a(dp137
g7
I0
saa(lp138
(g24
NS'8'
S'D'
tp139
a(dp140
g7
I0
saa(lp141
(g24
NS'8'
S'E'
tp142
a(dp143
g7
I0
saa(lp144
(S'Basic Discovery Scanner'
p145
NS'1'
S'E'
tp146
a(dp147
g7
I2
saa(lp148
(S'Beam Laser'
p149
NS'1'
S'E'
tp150
a(dp151
g7
I2
saa(lp152
(g149
NS'1'
S'F'
tp153
a(dp154
g7
I2
saa(lp155
(g149
NS'2'
S'D'
tp156
a(dp157
g7
I4
saa(lp158
(g149
NS'2'
S'E'
tp159
a(dp160
g7
I4
saa(lp161
(g149
NS'3'
S'C'
tp162
a(dp163
g7
I8
saa(lp164
(g149
NS'3'
S'D'
tp165
a(dp166
g7
I8
saa(lp167
(g149
NS'4'
S'A'
tp168
a(dp169
g7
I16
saa(lp170
(S'Bi-Weave Shield Generator'
p171
NS'1'
S'C'
tp172
a(dp173
g7
F1.3
saa(lp174
(g171
NS'2'
S'C'
tp175
a(dp176
g7
F2.5
saa(lp177
(g171
NS'3'
S'C'
tp178
a(dp179
g7
I5
saa(lp180
(g171
NS'4'
S'C'
tp181
a(dp182
g7
I10
saa(lp183
(g171
NS'5'
S'C'
tp184
a(dp185
g7
I20
saa(lp186
(g171
NS'6'
S'C'
tp187
a(dp188
g7
I40
saa(lp189
(g171
NS'7'
S'C'
tp190
a(dp191
g7
I80
saa(lp192
(g171
NS'8'
S'C'
tp193
a(dp194
g7
I160
saa(lp195
(S'Burst Laser'
p196
NS'1'
S'F'
tp197
a(dp198
g7
I2
saa(lp199
(g196
NS'1'
S'G'
tp200
a(dp201
g7
I2
saa(lp202
(g196
NS'2'
S'E'
tp203
a(dp204
g7
I4
saa(lp205
(g196
NS'2'
S'F'
tp206
a(dp207
g7
I4
saa(lp208
(g196
NS'3'
S'D'
tp209
a(dp210
g7
I8
saa(lp211
(g196
NS'3'
S'E'
tp212
a(dp213
g7
I8
saa(lp214
(g196
NS'4'
S'E'
tp215
a(dp216
g7
I16
saa(lp217
(S'Business Class Passenger Cabin'
p218
NS'3'
S'D'
tp219
a(dp220
g7
I5
saa(lp221
(g218
NS'4'
S'D'
tp222
a(dp223
g7
I10
saa(lp224
(g218
NS'5'
S'D'
tp225
a(dp226
g7
I20
saa(lp227
(g218
NS'6'
S'D'
tp228
a(dp229
g7
I40
saa(lp230
(S'Cannon'
p231
NS'1'
S'D'
tp232
a(dp233
g7
I2
saa(lp234
(g231
NS'1'
S'E'
tp235
a(dp236
g7
I2
saa(lp237
(g231
NS'1'
S'F'
tp238
a(dp239
g7
I2
saa(lp240
(g231
NS'2'
S'D'
tp241
a(dp242
g7
I4
saa(lp243
(g231
NS'2'
S'E'
tp244
a(dp245
g7
I4
saa(lp246
(g231
NS'3'
S'C'
tp247
a(dp248
g7
I8
saa(lp249
(g231
NS'3'
S'D'
tp250
a(dp251
g7
I8
saa(lp252
(g231
NS'4'
S'B'
tp253
a(dp254
g7
I16
saa(lp255
(S'Cargo Rack'
p256
NS'1'
S'E'
tp257
a(dp258
g7
I0
saa(lp259
(g256
NS'2'
S'E'
tp260
a(dp261
g7
I0
saa(lp262
(g256
NS'3'
S'E'
tp263
a(dp264
g7
I0
saa(lp265
(g256
NS'4'
S'E'
tp266
a(dp267
g7
I0
saa(lp268
(g256
NS'5'
S'E'
tp269
a(dp270
g7
I0
saa(lp271
(g256
NS'6'
S'E'
tp272
a(dp273
g7
I0
saa(lp274
(g256
NS'7'
S'E'
tp275
a(dp276
g7
I0
saa(lp277
(g256
NS'8'
S'E'
tp278
a(dp279
g7
I0
saa(lp280
(S'Cargo Scanner'
p281
NS'0'
S'A'
tp282
a(dp283
g7
F1.3
saa(lp284
(g281
NS'0'
S'B'
tp285
a(dp286
g7
F1.3
saa(lp287
(g281
NS'0'
S'C'
tp288
a(dp289
g7
F1.3
saa(lp290
(g281
NS'0'
S'D'
tp291
a(dp292
g7
F1.3
saa(lp293
(g281
NS'0'
S'E'
tp294
a(dp295
g7
F1.3
saa(lp296
(S'Chaff Launcher'
p297
NS'0'
S'I'
tp298
a(dp299
g7
F1.3
saa(lp300
(S'Collector Limpet Controller'
p301
NS'1'
S'A'
tp302
a(dp303
g7
I2
saa(lp304
(g301
NS'1'
S'B'
tp305
a(dp306
g7
I2
saa(lp307
(g301
NS'1'
S'C'
tp308
a(dp309
g7
F1.3
saa(lp310
(g301
NS'1'
S'D'
tp311
a(dp312
g7
F0.5
saa(lp313
(g301
NS'1'
S'E'
tp314
a(dp315
g7
F0.5
saa(lp316
(g301
NS'3'
S'A'
tp317
a(dp318
g7
I8
saa(lp319
(g301
NS'3'
S'B'
tp320
a(dp321
g7
I8
saa(lp322
(g301
NS'3'
S'C'
tp323
a(dp324
g7
I5
saa(lp325
(g301
NS'3'
S'D'
tp326
a(dp327
g7
I2
saa(lp328
(g301
NS'3'
S'E'
tp329
a(dp330
g7
I2
saa(lp331
(g301
NS'5'
S'A'
tp332
a(dp333
g7
I32
saa(lp334
(g301
NS'5'
S'B'
tp335
a(dp336
g7
I32
saa(lp337
(g301
NS'5'
S'C'
tp338
a(dp339
g7
I20
saa(lp340
(g301
NS'5'
S'D'
tp341
a(dp342
g7
I8
saa(lp343
(g301
NS'5'
S'E'
tp344
a(dp345
g7
I8
saa(lp346
(g301
NS'7'
S'A'
tp347
a(dp348
g7
I128
saa(lp349
(g301
NS'7'
S'B'
tp350
a(dp351
g7
I128
saa(lp352
(g301
NS'7'
S'C'
tp353
a(dp354
g7
I80
saa(lp355
(g301
NS'7'
S'D'
tp356
a(dp357
g7
I32
saa(lp358
(g301
NS'7'
S'E'
tp359
a(dp360
g7
I32
saa(lp361
(S'Corrosion Resistant Cargo Rack'
p362
NS'1'
S'E'
tp363
a(dp364
g7
I0
saa(lp365
(g362
NS'1'
S'F'
tp366
a(dp367
g7
I0
saa(lp368
(S'Cytoscrambler Burst Laser'
p369
NS'1'
S'F'
tp370
a(dp371
g7
I2
saa(lp372
(S'Detailed Surface Scanner'
p373
NS'1'
S'C'
tp374
a(dp375
g7
F1.3
saa(lp376
(S'Economy Class Passenger Cabin'
p377
NS'2'
S'E'
tp378
a(dp379
g7
F2.5
saa(lp380
(g377
NS'3'
S'E'
tp381
a(dp382
g7
I5
saa(lp383
(g377
NS'4'
S'E'
tp384
a(dp385
g7
I10
saa(lp386
(g377
NS'5'
S'E'
tp387
a(dp388
g7
I20
saa(lp389
(g377
NS'6'
S'E'
tp390
a(dp391
g7
I40
saa(lp392
(S'Electronic Countermeasure'
p393
NS'0'
S'F'
tp394
a(dp395
g7
F1.3
saa(lp396
(S'Enforcer Cannon'
p397
NS'1'
S'F'
tp398
a(dp399
g7
I2
saa(lp400
(S'Enhanced Performance Thrusters'
p401
NS'2'
S'A'
tp402
a(dp403
g7
F2.5
saa(lp404
(g401
NS'3'
S'A'
tp405
a(dp406
g7
I5
saa(lp407
(S'Fighter Hangar'
p408
NS'5'
S'D'
tp409
a(dp410
g7
I20
saa(lp411
(g408
NS'6'
S'D'
tp412
a(dp413
g7
I40
saa(lp414
(g408
NS'7'
S'D'
tp415
a(dp416
g7
I60
saa(lp417
(S'First Class Passenger Cabin'
p418
NS'4'
S'C'
tp419
a(dp420
g7
I10
saa(lp421
(g418
NS'5'
S'C'
tp422
a(dp423
g7
I20
saa(lp424
(g418
NS'6'
S'C'
tp425
a(dp426
g7
I40
saa(lp427
(S'Fragment Cannon'
p428
NS'1'
S'E'
tp429
a(dp430
g7
I2
saa(lp431
(g428
NS'2'
S'A'
tp432
a(dp433
g7
I4
saa(lp434
(g428
NS'2'
S'D'
tp435
a(dp436
g7
I4
saa(lp437
(g428
NS'3'
S'C'
tp438
a(dp439
g7
I8
saa(lp440
(S'Frame Shift Drive'
p441
NS'2'
S'A'
tp442
a(dp443
S'optmass'
p444
I90
sS'fuelmul'
p445
F0.012
sg7
F2.5
sS'maxfuel'
p446
F0.90000000000000002
sS'fuelpower'
p447
I2
saa(lp448
(g441
NS'2'
S'B'
tp449
a(dp450
g444
I75
sg445
F0.01
sg7
I4
sg446
F0.80000000000000004
sg447
I2
saa(lp451
(g441
NS'2'
S'C'
tp452
a(dp453
g444
I60
sg445
F0.0080000000000000002
sg7
F2.5
sg446
F0.59999999999999998
sg447
I2
saa(lp454
(g441
NS'2'
S'D'
tp455
a(dp456
g444
I54
sg445
F0.01
sg7
I1
sg446
F0.59999999999999998
sg447
I2
saa(lp457
(g441
NS'2'
S'E'
tp458
a(dp459
g444
I48
sg445
F0.010999999999999999
sg7
F2.5
sg446
F0.59999999999999998
sg447
I2
saa(lp460
(g441
NS'3'
S'A'
tp461
a(dp462
g444
I150
sg445
F0.012
sg7
I5
sg446
F1.8
sg447
F2.1499999999999999
saa(lp463
(g441
NS'3'
S'B'
tp464
a(dp465
g444
I125
sg445
F0.01
sg7
I8
sg446
F1.5
sg447
F2.1499999999999999
saa(lp466
(g441
NS'3'
S'C'
tp467
a(dp468
g444
I100
sg445
F0.0080000000000000002
sg7
I5
sg446
F1.2
sg447
F2.1499999999999999
saa(lp469
(g441
NS'3'
S'D'
tp470
a(dp471
g444
I90
sg445
F0.01
sg7
I2
sg446
F1.2
sg447
F2.1499999999999999
saa(lp472
(g441
NS'3'
S'E'
tp473
a(dp474
g444
I80
sg445
F0.010999999999999999
sg7
I5
sg446
F1.2
sg447
F2.1499999999999999
saa(lp475
(g441
NS'4'
S'A'
tp476
a(dp477
g444
I525
sg445
F0.012
sg7
I10
sg446
I3
sg447
F2.2999999999999998
saa(lp478
(g441
NS'4'
S'B'
tp479
a(dp480
g444
F437.5
sg445
F0.01
sg7
I16
sg446
F2.5
sg447
F2.2999999999999998
saa(lp481
(g441
NS'4'
S'C'
tp482
a(dp483
g444
I350
sg445
F0.0080000000000000002
sg7
I10
sg446
I2
sg447
F2.2999999999999998
saa(lp484
(g441
NS'4'
S'D'
tp485
a(dp486
g444
I315
sg445
F0.01
sg7
I4
sg446
I2
sg447
F2.2999999999999998
saa(lp487
(g441
NS'4'
S'E'
tp488
a(dp489
g444
I280
sg445
F0.010999999999999999
sg7
I10
sg446
I2
sg447
F2.2999999999999998
saa(lp490
(g441
NS'5'
S'A'
tp491
a(dp492
g444
I1050
sg445
F0.012
sg7
I20
sg446
I5
sg447
F2.4500000000000002
saa(lp493
(g441
NS'5'
S'B'
tp494
a(dp495
g444
I875
sg445
F0.01
sg7
I32
sg446
F4.0999999999999996
sg447
F2.4500000000000002
saa(lp496
(g441
NS'5'
S'C'
tp497
a(dp498
g444
I700
sg445
F0.0080000000000000002
sg7
I20
sg446
F3.2999999999999998
sg447
F2.4500000000000002
saa(lp499
(g441
NS'5'
S'D'
tp500
a(dp501
g444
I630
sg445
F0.01
sg7
I8
sg446
F3.2999999999999998
sg447
F2.4500000000000002
saa(lp502
(g441
NS'5'
S'E'
tp503
a(dp504
g444
I560
sg445
F0.010999999999999999
sg7
I20
sg446
F3.2999999999999998
sg447
F2.4500000000000002
saa(lp505
(g441
NS'6'
S'A'
tp506
a(dp507
g444
I1800
sg445
F0.012
sg7
I40
sg446
I8
sg447
F2.6000000000000001
saa(lp508
(g441
NS'6'
S'B'
tp509
a(dp510
g444
I1500
sg445
F0.01
sg7
I64
sg446
F6.5999999999999996
sg447
F2.6000000000000001
saa(lp511
(g441
NS'6'
S'C'
tp512
a(dp513
g444
I1200
sg445
F0.0080000000000000002
sg7
I40
sg446
F5.2999999999999998
sg447
F2.6000000000000001
saa(lp514
(g441
NS'6'
S'D'
tp515
a(dp516
g444
I1080
sg445
F0.01
sg7
I16
sg446
F5.2999999999999998
sg447
F2.6000000000000001
saa(lp517
(g441
NS'6'
S'E'
tp518
a(dp519
g444
I960
sg445
F0.010999999999999999
sg7
I40
sg446
F5.2999999999999998
sg447
F2.6000000000000001
saa(lp520
(g441
NS'7'
S'A'
tp521
a(dp522
g444
I2700
sg445
F0.012
sg7
I80
sg446
F12.800000000000001
sg447
F2.75
saa(lp523
(g441
NS'7'
S'B'
tp524
a(dp525
g444
I2250
sg445
F0.01
sg7
I128
sg446
F10.6
sg447
F2.75
saa(lp526
(g441
NS'7'
S'C'
tp527
a(dp528
g444
I1800
sg445
F0.0080000000000000002
sg7
I80
sg446
F8.5
sg447
F2.75
saa(lp529
(g441
NS'7'
S'D'
tp530
a(dp531
g444
I1620
sg445
F0.01
sg7
I32
sg446
F8.5
sg447
F2.75
saa(lp532
(g441
NS'7'
S'E'
tp533
a(dp534
g444
I1440
sg445
F0.010999999999999999
sg7
I80
sg446
F8.5
sg447
F2.75
saa(lp535
(g441
NS'8'
S'A'
tp536
a(dp537
g444
I0
sg445
F0.012
sg7
I160
sg446
I0
sg447
F2.8999999999999999
saa(lp538
(g441
NS'8'
S'B'
tp539
a(dp540
g444
I0
sg445
F0.01
sg7
I256
sg446
I0
sg447
F2.8999999999999999
saa(lp541
(g441
NS'8'
S'C'
tp542
a(dp543
g444
I0
sg445
F0.0080000000000000002
sg7
I160
sg446
I0
sg447
F2.8999999999999999
saa(lp544
(g441
NS'8'
S'D'
tp545
a(dp546
g444
I0
sg445
F0.01
sg7
I64
sg446
I0
sg447
F2.8999999999999999
saa(lp547
(g441
NS'8'
S'E'
tp548
a(dp549
g444
I0
sg445
F0.010999999999999999
sg7
I160
sg446
I0
sg447
F2.8999999999999999
saa(lp550
(S'Frame Shift Drive Interdictor'
p551
NS'1'
S'A'
tp552
a(dp553
g7
F1.3
saa(lp554
(g551
NS'1'
S'B'
tp555
a(dp556
g7
I2
saa(lp557
(g551
NS'1'
S'C'
tp558
a(dp559
g7
F1.3
saa(lp560
(g551
NS'1'
S'D'
tp561
a(dp562
g7
F0.5
saa(lp563
(g551
NS'1'
S'E'
tp564
a(dp565
g7
F1.3
saa(lp566
(g551
NS'2'
S'A'
tp567
a(dp568
g7
F2.5
saa(lp569
(g551
NS'2'
S'B'
tp570
a(dp571
g7
I4
saa(lp572
(g551
NS'2'
S'C'
tp573
a(dp574
g7
F2.5
saa(lp575
(g551
NS'2'
S'D'
tp576
a(dp577
g7
I1
saa(lp578
(g551
NS'2'
S'E'
tp579
a(dp580
g7
F2.5
saa(lp581
(g551
NS'3'
S'A'
tp582
a(dp583
g7
I5
saa(lp584
(g551
NS'3'
S'B'
tp585
a(dp586
g7
I8
saa(lp587
(g551
NS'3'
S'C'
tp588
a(dp589
g7
I5
saa(lp590
(g551
NS'3'
S'D'
tp591
a(dp592
g7
I2
saa(lp593
(g551
NS'3'
S'E'
tp594
a(dp595
g7
I5
saa(lp596
(g551
NS'4'
S'A'
tp597
a(dp598
g7
I10
saa(lp599
(g551
NS'4'
S'B'
tp600
a(dp601
g7
I16
saa(lp602
(g551
NS'4'
S'C'
tp603
a(dp604
g7
I10
saa(lp605
(g551
NS'4'
S'D'
tp606
a(dp607
g7
I4
saa(lp608
(g551
NS'4'
S'E'
tp609
a(dp610
g7
I10
saa(lp611
(S'Frame Shift Wake Scanner'
p612
NS'0'
S'A'
tp613
a(dp614
g7
F1.3
saa(lp615
(g612
NS'0'
S'B'
tp616
a(dp617
g7
F1.3
saa(lp618
(g612
NS'0'
S'C'
tp619
a(dp620
g7
F1.3
saa(lp621
(g612
NS'0'
S'D'
tp622
a(dp623
g7
F1.3
saa(lp624
(g612
NS'0'
S'E'
tp625
a(dp626
g7
F1.3
saa(lp627
(S'Fuel Scoop'
p628
NS'1'
S'A'
tp629
a(dp630
g7
I0
saa(lp631
(g628
NS'1'
S'B'
tp632
a(dp633
g7
I0
saa(lp634
(g628
NS'1'
S'C'
tp635
a(dp636
g7
I0
saa(lp637
(g628
NS'1'
S'D'
tp638
a(dp639
g7
I0
saa(lp640
(g628
NS'1'
S'E'
tp641
a(dp642
g7
I0
saa(lp643
(g628
NS'2'
S'A'
tp644
a(dp645
g7
I0
saa(lp646
(g628
NS'2'
S'B'
tp647
a(dp648
g7
I0
saa(lp649
(g628
NS'2'
S'C'
tp650
a(dp651
g7
I0
saa(lp652
(g628
NS'2'
S'D'
tp653
a(dp654
g7
I0
saa(lp655
(g628
NS'2'
S'E'
tp656
a(dp657
g7
I0
saa(lp658
(g628
NS'3'
S'A'
tp659
a(dp660
g7
I0
saa(lp661
(g628
NS'3'
S'B'
tp662
a(dp663
g7
I0
saa(lp664
(g628
NS'3'
S'C'
tp665
a(dp666
g7
I0
saa(lp667
(g628
NS'3'
S'D'
tp668
a(dp669
g7
I0
saa(lp670
(g628
NS'3'
S'E'
tp671
a(dp672
g7
I0
saa(lp673
(g628
NS'4'
S'A'
tp674
a(dp675
g7
I0
saa(lp676
(g628
NS'4'
S'B'
tp677
a(dp678
g7
I0
saa(lp679
(g628
NS'4'
S'C'
tp680
a(dp681
g7
I0
saa(lp682
(g628
NS'4'
S'D'
tp683
a(dp684
g7
I0
saa(lp685
(g628
NS'4'
S'E'
tp686
a(dp687
g7
I0
saa(lp688
(g628
NS'5'
S'A'
tp689
a(dp690
g7
I0
saa(lp691
(g628
NS'5'
S'B'
tp692
a(dp693
g7
I0
saa(lp694
(g628
NS'5'
S'C'
tp695
a(dp696
g7
I0
saa(lp697
(g628
NS'5'
S'D'
tp698
a(dp699
g7
I0
saa(lp700
(g628
NS'5'
S'E'
tp701
a(dp702
g7
I0
saa(lp703
(g628
NS'6'
S'A'
tp704
a(dp705
g7
I0
saa(lp706
(g628
NS'6'
S'B'
tp707
a(dp708
g7
I0
saa(lp709
(g628
NS'6'
S'C'
tp710
a(dp711
g7
I0
saa(lp712
(g628
NS'6'
S'D'
tp713
a(dp714
g7
I0
saa(lp715
(g628
NS'6'
S'E'
tp716
a(dp717
g7
I0
saa(lp718
(g628
NS'7'
S'A'
tp719
a(dp720
g7
I0
saa(lp721
(g628
NS'7'
S'B'
tp722
a(dp723
g7
I0
saa(lp724
(g628
NS'7'
S'C'
tp725
a(dp726
g7
I0
saa(lp727
(g628
NS'7'
S'D'
tp728
a(dp729
g7
I0
saa(lp730
(g628
NS'7'
S'E'
tp731
a(dp732
g7
I0
saa(lp733
(g628
NS'8'
S'A'
tp734
a(dp735
g7
I0
saa(lp736
(g628
NS'8'
S'B'
tp737
a(dp738
g7
I0
saa(lp739
(g628
NS'8'
S'C'
tp740
a(dp741
g7
I0
saa(lp742
(g628
NS'8'
S'D'
tp743
a(dp744
g7
I0
saa(lp745
(g628
NS'8'
S'E'
tp746
a(dp747
g7
I0
saa(lp748
(S'Fuel Tank'
p749
NS'1'
S'C'
tp750
a(dp751
g7
I0
saa(lp752
(g749
NS'2'
S'C'
tp753
a(dp754
g7
I0
saa(lp755
(g749
NS'3'
S'C'
tp756
a(dp757
g7
I0
saa(lp758
(g749
NS'4'
S'C'
tp759
a(dp760
g7
I0
saa(lp761
(g749
NS'5'
S'C'
tp762
a(dp763
g7
I0
saa(lp764
(g749
NS'6'
S'C'
tp765
a(dp766
g7
I0
saa(lp767
(g749
NS'7'
S'C'
tp768
a(dp769
g7
I0
saa(lp770
(g749
NS'8'
S'C'
tp771
a(dp772
g7
I0
saa(lp773
(S'Fuel Transfer Limpet Controller'
p774
NS'1'
S'A'
tp775
a(dp776
g7
F1.3
saa(lp777
(g774
NS'1'
S'B'
tp778
a(dp779
g7
I2
saa(lp780
(g774
NS'1'
S'C'
tp781
a(dp782
g7
F1.3
saa(lp783
(g774
NS'1'
S'D'
tp784
a(dp785
g7
F0.5
saa(lp786
(g774
NS'1'
S'E'
tp787
a(dp788
g7
F1.3
saa(lp789
(g774
NS'3'
S'A'
tp790
a(dp791
g7
I5
saa(lp792
(g774
NS'3'
S'B'
tp793
a(dp794
g7
I8
saa(lp795
(g774
NS'3'
S'C'
tp796
a(dp797
g7
I5
saa(lp798
(g774
NS'3'
S'D'
tp799
a(dp800
g7
I2
saa(lp801
(g774
NS'3'
S'E'
tp802
a(dp803
g7
I5
saa(lp804
(g774
NS'5'
S'A'
tp805
a(dp806
g7
I20
saa(lp807
(g774
NS'5'
S'B'
tp808
a(dp809
g7
I32
saa(lp810
(g774
NS'5'
S'C'
tp811
a(dp812
g7
I20
saa(lp813
(g774
NS'5'
S'D'
tp814
a(dp815
g7
I8
saa(lp816
(g774
NS'5'
S'E'
tp817
a(dp818
g7
I20
saa(lp819
(g774
NS'7'
S'A'
tp820
a(dp821
g7
I80
saa(lp822
(g774
NS'7'
S'B'
tp823
a(dp824
g7
I128
saa(lp825
(g774
NS'7'
S'C'
tp826
a(dp827
g7
I80
saa(lp828
(g774
NS'7'
S'D'
tp829
a(dp830
g7
I32
saa(lp831
(g774
NS'7'
S'E'
tp832
a(dp833
g7
I80
saa(lp834
(S'Hatch Breaker Limpet Controller'
p835
NS'1'
S'A'
tp836
a(dp837
g7
F1.3
saa(lp838
(g835
NS'1'
S'B'
tp839
a(dp840
g7
I2
saa(lp841
(g835
NS'1'
S'C'
tp842
a(dp843
g7
F1.3
saa(lp844
(g835
NS'1'
S'D'
tp845
a(dp846
g7
F0.5
saa(lp847
(g835
NS'1'
S'E'
tp848
a(dp849
g7
F1.3
saa(lp850
(g835
NS'3'
S'A'
tp851
a(dp852
g7
I5
saa(lp853
(g835
NS'3'
S'B'
tp854
a(dp855
g7
I8
saa(lp856
(g835
NS'3'
S'C'
tp857
a(dp858
g7
I5
saa(lp859
(g835
NS'3'
S'D'
tp860
a(dp861
g7
I2
saa(lp862
(g835
NS'3'
S'E'
tp863
a(dp864
g7
I5
saa(lp865
(g835
NS'5'
S'A'
tp866
a(dp867
g7
I20
saa(lp868
(g835
NS'5'
S'B'
tp869
a(dp870
g7
I32
saa(lp871
(g835
NS'5'
S'C'
tp872
a(dp873
g7
I20
saa(lp874
(g835
NS'5'
S'D'
tp875
a(dp876
g7
I8
saa(lp877
(g835
NS'5'
S'E'
tp878
a(dp879
g7
I20
saa(lp880
(g835
NS'7'
S'A'
tp881
a(dp882
g7
I90
saa(lp883
(g835
NS'7'
S'B'
tp884
a(dp885
g7
I128
saa(lp886
(g835
NS'7'
S'C'
tp887
a(dp888
g7
I80
saa(lp889
(g835
NS'7'
S'D'
tp890
a(dp891
g7
I32
saa(lp892
(g835
NS'7'
S'E'
tp893
a(dp894
g7
I80
saa(lp895
(S'Heat Sink Launcher'
p896
NS'0'
S'I'
tp897
a(dp898
g7
F1.3
saa(lp899
(S'Hull Reinforcement Package'
p900
NS'1'
S'D'
tp901
a(dp902
g7
I1
saa(lp903
(g900
NS'1'
S'E'
tp904
a(dp905
g7
I2
saa(lp906
(g900
NS'2'
S'D'
tp907
a(dp908
g7
I2
saa(lp909
(g900
NS'2'
S'E'
tp910
a(dp911
g7
I4
saa(lp912
(g900
NS'3'
S'D'
tp913
a(dp914
g7
I4
saa(lp915
(g900
NS'3'
S'E'
tp916
a(dp917
g7
I8
saa(lp918
(g900
NS'4'
S'D'
tp919
a(dp920
g7
I8
saa(lp921
(g900
NS'4'
S'E'
tp922
a(dp923
g7
I16
saa(lp924
(g900
NS'5'
S'D'
tp925
a(dp926
g7
I16
saa(lp927
(g900
NS'5'
S'E'
tp928
a(dp929
g7
I32
saa(lp930
(S'Imperial Hammer Rail Gun'
p931
NS'2'
S'B'
tp932
a(dp933
g7
I4
saa(lp934
(S'Intermediate Discovery Scanner'
p935
NS'1'
S'D'
tp936
a(dp937
g7
I2
saa(lp938
(S'Kill Warrant Scanner'
p939
NS'0'
S'A'
tp940
a(dp941
g7
F1.3
saa(lp942
(g939
NS'0'
S'B'
tp943
a(dp944
g7
F1.3
saa(lp945
(g939
NS'0'
S'C'
tp946
a(dp947
g7
F1.3
saa(lp948
(g939
NS'0'
S'D'
tp949
a(dp950
g7
F1.3
saa(lp951
(g939
NS'0'
S'E'
tp952
a(dp953
g7
F1.3
saa(lp954
(S'Life Support'
p955
NS'1'
S'A'
tp956
a(dp957
g7
F1.3
saa(lp958
(g955
NS'1'
S'B'
tp959
a(dp960
g7
I2
saa(lp961
(g955
NS'1'
S'C'
tp962
a(dp963
g7
F1.3
saa(lp964
(g955
NS'1'
S'D'
tp965
a(dp966
g7
F0.5
saa(lp967
(g955
NS'1'
S'E'
tp968
a(dp969
g7
F1.3
saa(lp970
(g955
NS'2'
S'A'
tp971
a(dp972
g7
F2.5
saa(lp973
(g955
NS'2'
S'B'
tp974
a(dp975
g7
I4
saa(lp976
(g955
NS'2'
S'C'
tp977
a(dp978
g7
F2.5
saa(lp979
(g955
NS'2'
S'D'
tp980
a(dp981
g7
I1
saa(lp982
(g955
NS'2'
S'E'
tp983
a(dp984
g7
F2.5
saa(lp985
(g955
NS'3'
S'A'
tp986
a(dp987
g7
I5
saa(lp988
(g955
NS'3'
S'B'
tp989
a(dp990
g7
I8
saa(lp991
(g955
NS'3'
S'C'
tp992
a(dp993
g7
I5
saa(lp994
(g955
NS'3'
S'D'
tp995
a(dp996
g7
I2
saa(lp997
(g955
NS'3'
S'E'
tp998
a(dp999
g7
I5
saa(lp1000
(g955
NS'4'
S'A'
tp1001
a(dp1002
g7
I10
saa(lp1003
(g955
NS'4'
S'B'
tp1004
a(dp1005
g7
I16
saa(lp1006
(g955
NS'4'
S'C'
tp1007
a(dp1008
g7
I10
saa(lp1009
(g955
NS'4'
S'D'
tp1010
a(dp1011
g7
I4
saa(lp1012
(g955
NS'4'
S'E'
tp1013
a(dp1014
g7
I10
saa(lp1015
(g955
NS'5'
S'A'
tp1016
a(dp1017
g7
I20
saa(lp1018
(g955
NS'5'
S'B'
tp1019
a(dp1020
g7
I32
saa(lp1021
(g955
NS'5'
S'C'
tp1022
a(dp1023
g7
I20
saa(lp1024
(g955
NS'5'
S'D'
tp1025
a(dp1026
g7
I8
saa(lp1027
(g955
NS'5'
S'E'
tp1028
a(dp1029
g7
I20
saa(lp1030
(g955
NS'6'
S'A'
tp1031
a(dp1032
g7
I40
saa(lp1033
(g955
NS'6'
S'B'
tp1034
a(dp1035
g7
I64
saa(lp1036
(g955
NS'6'
S'C'
tp1037
a(dp1038
g7
I40
saa(lp1039
(g955
NS'6'
S'D'
tp1040
a(dp1041
g7
I16
saa(lp1042
(g955
NS'6'
S'E'
tp1043
a(dp1044
g7
I40
saa(lp1045
(g955
NS'7'
S'A'
tp1046
a(dp1047
g7
I80
saa(lp1048
(g955
NS'7'
S'B'
tp1049
a(dp1050
g7
I128
saa(lp1051
(g955
NS'7'
S'C'
tp1052
a(dp1053
g7
I80
saa(lp1054
(g955
NS'7'
S'D'
tp1055
a(dp1056
g7
I32
saa(lp1057
(g955
NS'7'
S'E'
tp1058
a(dp1059
g7
I80
saa(lp1060
(g955
NS'8'
S'A'
tp1061
a(dp1062
g7
I160
saa(lp1063
(g955
NS'8'
S'B'
tp1064
a(dp1065
g7
I256
saa(lp1066
(g955
NS'8'
S'C'
tp1067
a(dp1068
g7
I160
saa(lp1069
(g955
NS'8'
S'D'
tp1070
a(dp1071
g7
I64
saa(lp1072
(g955
NS'8'
S'E'
tp1073
a(dp1074
g7
I160
saa(lp1075
(S'Lightweight Alloy'
p1076
S'Adder'
p1077
S'1'
S'I'
tp1078
a(dp1079
g7
I0
saa(lp1080
(g1076
S'Anaconda'
p1081
S'1'
S'I'
tp1082
a(dp1083
g7
I0
saa(lp1084
(g1076
S'Asp Explorer'
p1085
S'1'
S'I'
tp1086
a(dp1087
g7
I0
saa(lp1088
(g1076
S'Asp Scout'
p1089
S'1'
S'I'
tp1090
a(dp1091
g7
I0
saa(lp1092
(g1076
S'Beluga Liner'
p1093
S'1'
S'I'
tp1094
a(dp1095
g7
I0
saa(lp1096
(g1076
S'Cobra MkIII'
p1097
S'1'
S'I'
tp1098
a(dp1099
g7
I0
saa(lp1100
(g1076
S'Cobra MkIV'
p1101
S'1'
S'I'
tp1102
a(dp1103
g7
I0
saa(lp1104
(g1076
S'Diamondback Explorer'
p1105
S'1'
S'I'
tp1106
a(dp1107
g7
I0
saa(lp1108
(g1076
S'Diamondback Scout'
p1109
S'1'
S'I'
tp1110
a(dp1111
g7
I0
saa(lp1112
(g1076
S'Dolphin'
p1113
S'1'
S'I'
tp1114
a(dp1115
g7
I0
saa(lp1116
(g1076
S'Eagle'
p1117
S'1'
S'I'
tp1118
a(dp1119
g7
I0
saa(lp1120
(g1076
S'Federal Assault Ship'
p1121
S'1'
S'I'
tp1122
a(dp1123
g7
I0
saa(lp1124
(g1076
S'Federal Corvette'
p1125
S'1'
S'I'
tp1126
a(dp1127
g7
I0
saa(lp1128
(g1076
S'Federal Dropship'
p1129
S'1'
S'I'
tp1130
a(dp1131
g7
I0
saa(lp1132
(g1076
S'Federal Gunship'
p1133
S'1'
S'I'
tp1134
a(dp1135
g7
I0
saa(lp1136
(g1076
S'Fer-de-Lance'
p1137
S'1'
S'I'
tp1138
a(dp1139
g7
I0
saa(lp1140
(g1076
S'Hauler'
p1141
S'1'
S'I'
tp1142
a(dp1143
g7
I0
saa(lp1144
(g1076
S'Imperial Clipper'
p1145
S'1'
S'I'
tp1146
a(dp1147
g7
I0
saa(lp1148
(g1076
S'Imperial Courier'
p1149
S'1'
S'I'
tp1150
a(dp1151
g7
I0
saa(lp1152
(g1076
S'Imperial Cutter'
p1153
S'1'
S'I'
tp1154
a(dp1155
g7
I0
saa(lp1156
(g1076
S'Imperial Eagle'
p1157
S'1'
S'I'
tp1158
a(dp1159
g7
I0
saa(lp1160
(g1076
S'Keelback'
p1161
S'1'
S'I'
tp1162
a(dp1163
g7
I0
saa(lp1164
(g1076
S'Orca'
p1165
S'1'
S'I'
tp1166
a(dp1167
g7
I0
saa(lp1168
(g1076
S'Python'
p1169
S'1'
S'I'
tp1170
a(dp1171
g7
I0
saa(lp1172
(g1076
S'Sidewinder'
p1173
S'1'
S'I'
tp1174
a(dp1175
g7
I0
saa(lp1176
(g1076
S'Type-10 Defender'
p1177
S'1'
S'I'
tp1178
a(dp1179
g7
I0
saa(lp1180
(g1076
S'Type-6 Transporter'
p1181
S'1'
S'I'
tp1182
a(dp1183
g7
I0
saa(lp1184
(g1076
S'Type-7 Transporter'
p1185
S'1'
S'I'
tp1186
a(dp1187
g7
I0
saa(lp1188
(g1076
S'Type-9 Heavy'
p1189
S'1'
S'I'
tp1190
a(dp1191
g7
I0
saa(lp1192
(g1076
S'Viper MkIII'
p1193
S'1'
S'I'
tp1194
a(dp1195
g7
I0
saa(lp1196
(g1076
S'Viper MkIV'
p1197
S'1'
S'I'
tp1198
a(dp1199
g7
I0
saa(lp1200
(g1076
S'Vulture'
p1201
S'1'
S'I'
tp1202
a(dp1203
g7
I0
saa(lp1204
(S'Luxury Class Passenger Cabin'
p1205
NS'5'
S'B'
tp1206
a(dp1207
g7
I20
saa(lp1208
(g1205
NS'6'
S'B'
tp1209
a(dp1210
g7
I40
saa(lp1211
(S'Military Grade Composite'
p1212
g1077
S'1'
S'I'
tp1213
a(dp1214
g7
I5
saa(lp1215
(g1212
g1081
S'1'
S'I'
tp1216
a(dp1217
g7
I60
saa(lp1218
(g1212
g1085
S'1'
S'I'
tp1219
a(dp1220
g7
I42
saa(lp1221
(g1212
g1089
S'1'
S'I'
tp1222
a(dp1223
g7
I42
saa(lp1224
(g1212
g1093
S'1'
S'I'
tp1225
a(dp1226
g7
I165
saa(lp1227
(g1212
g1097
S'1'
S'I'
tp1228
a(dp1229
g7
I27
saa(lp1230
(g1212
g1101
S'1'
S'I'
tp1231
a(dp1232
g7
I27
saa(lp1233
(g1212
g1105
S'1'
S'I'
tp1234
a(dp1235
g7
I47
saa(lp1236
(g1212
g1109
S'1'
S'I'
tp1237
a(dp1238
g7
I26
saa(lp1239
(g1212
g1113
S'1'
S'I'
tp1240
a(dp1241
g7
I63
saa(lp1242
(g1212
g1117
S'1'
S'I'
tp1243
a(dp1244
g7
I8
saa(lp1245
(g1212
g1121
S'1'
S'I'
tp1246
a(dp1247
g7
I87
saa(lp1248
(g1212
g1125
S'1'
S'I'
tp1249
a(dp1250
g7
I60
saa(lp1251
(g1212
g1129
S'1'
S'I'
tp1252
a(dp1253
g7
I87
saa(lp1254
(g1212
g1133
S'1'
S'I'
tp1255
a(dp1256
g7
I87
saa(lp1257
(g1212
g1137
S'1'
S'I'
tp1258
a(dp1259
g7
I38
saa(lp1260
(g1212
g1141
S'1'
S'I'
tp1261
a(dp1262
g7
I2
saa(lp1263
(g1212
g1145
S'1'
S'I'
tp1264
a(dp1265
g7
I60
saa(lp1266
(g1212
g1149
S'1'
S'I'
tp1267
a(dp1268
g7
I8
saa(lp1269
(g1212
g1153
S'1'
S'I'
tp1270
a(dp1271
g7
I60
saa(lp1272
(g1212
g1157
S'1'
S'I'
tp1273
a(dp1274
g7
I8
saa(lp1275
(g1212
g1161
S'1'
S'I'
tp1276
a(dp1277
g7
I23
saa(lp1278
(g1212
g1165
S'1'
S'I'
tp1279
a(dp1280
g7
I87
saa(lp1281
(g1212
g1169
S'1'
S'I'
tp1282
a(dp1283
g7
I53
saa(lp1284
(g1212
g1173
S'1'
S'I'
tp1285
a(dp1286
g7
I4
saa(lp1287
(g1212
g1177
S'1'
S'I'
tp1288
a(dp1289
g7
I150
saa(lp1290
(g1212
g1181
S'1'
S'I'
tp1291
a(dp1292
g7
I23
saa(lp1293
(g1212
g1185
S'1'
S'I'
tp1294
a(dp1295
g7
I63
saa(lp1296
(g1212
g1189
S'1'
S'I'
tp1297
a(dp1298
g7
I150
saa(lp1299
(g1212
g1193
S'1'
S'I'
tp1300
a(dp1301
g7
I9
saa(lp1302
(g1212
g1197
S'1'
S'I'
tp1303
a(dp1304
g7
I9
saa(lp1305
(g1212
g1201
S'1'
S'I'
tp1306
a(dp1307
g7
I35
saa(lp1308
(S'Mine Launcher'
p1309
NS'1'
S'I'
tp1310
a(dp1311
g7
I2
saa(lp1312
(g1309
NS'2'
S'I'
tp1313
a(dp1314
g7
I4
saa(lp1315
(S'Mining Lance Beam Laser'
p1316
NS'1'
S'D'
tp1317
a(dp1318
g7
I2
saa(lp1319
(S'Mining Laser'
p1320
NS'1'
S'D'
tp1321
a(dp1322
g7
I2
saa(lp1323
(g1320
NS'2'
S'D'
tp1324
a(dp1325
g7
I2
saa(lp1326
(S'Mirrored Surface Composite'
p1327
g1077
S'1'
S'I'
tp1328
a(dp1329
g7
I5
saa(lp1330
(g1327
g1081
S'1'
S'I'
tp1331
a(dp1332
g7
I60
saa(lp1333
(g1327
g1085
S'1'
S'I'
tp1334
a(dp1335
g7
I42
saa(lp1336
(g1327
g1089
S'1'
S'I'
tp1337
a(dp1338
g7
I42
saa(lp1339
(g1327
g1093
S'1'
S'I'
tp1340
a(dp1341
g7
I165
saa(lp1342
(g1327
g1097
S'1'
S'I'
tp1343
a(dp1344
g7
I27
saa(lp1345
(g1327
g1101
S'1'
S'I'
tp1346
a(dp1347
g7
I27
saa(lp1348
(g1327
g1105
S'1'
S'I'
tp1349
a(dp1350
g7
I26
saa(lp1351
(g1327
g1109
S'1'
S'I'
tp1352
a(dp1353
g7
I26
saa(lp1354
(g1327
g1113
S'1'
S'I'
tp1355
a(dp1356
g7
I63
saa(lp1357
(g1327
g1117
S'1'
S'I'
tp1358
a(dp1359
g7
I8
saa(lp1360
(g1327
g1121
S'1'
S'I'
tp1361
a(dp1362
g7
I87
saa(lp1363
(g1327
g1125
S'1'
S'I'
tp1364
a(dp1365
g7
I60
saa(lp1366
(g1327
g1129
S'1'
S'I'
tp1367
a(dp1368
g7
I87
saa(lp1369
(g1327
g1133
S'1'
S'I'
tp1370
a(dp1371
g7
I87
saa(lp1372
(g1327
g1137
S'1'
S'I'
tp1373
a(dp1374
g7
I38
saa(lp1375
(g1327
g1141
S'1'
S'I'
tp1376
a(dp1377
g7
I2
saa(lp1378
(g1327
g1145
S'1'
S'I'
tp1379
a(dp1380
g7
I60
saa(lp1381
(g1327
g1149
S'1'
S'I'
tp1382
a(dp1383
g7
I8
saa(lp1384
(g1327
g1153
S'1'
S'I'
tp1385
a(dp1386
g7
I60
saa(lp1387
(g1327
g1157
S'1'
S'I'
tp1388
a(dp1389
g7
I8
saa(lp1390
(g1327
g1161
S'1'
S'I'
tp1391
a(dp1392
g7
I23
saa(lp1393
(g1327
g1165
S'1'
S'I'
tp1394
a(dp1395
g7
I87
saa(lp1396
(g1327
g1169
S'1'
S'I'
tp1397
a(dp1398
g7
I53
saa(lp1399
(g1327
g1173
S'1'
S'I'
tp1400
a(dp1401
g7
I4
saa(lp1402
(g1327
g1177
S'1'
S'I'
tp1403
a(dp1404
g7
I150
saa(lp1405
(g1327
g1181
S'1'
S'I'
tp1406
a(dp1407
g7
I23
saa(lp1408
(g1327
g1185
S'1'
S'I'
tp1409
a(dp1410
g7
I63
saa(lp1411
(g1327
g1189
S'1'
S'I'
tp1412
a(dp1413
g7
I150
saa(lp1414
(g1327
g1193
S'1'
S'I'
tp1415
a(dp1416
g7
I9
saa(lp1417
(g1327
g1197
S'1'
S'I'
tp1418
a(dp1419
g7
I9
saa(lp1420
(g1327
g1201
S'1'
S'I'
tp1421
a(dp1422
g7
I35
saa(lp1423
(S'Missile Rack'
p1424
NS'1'
S'B'
tp1425
a(dp1426
g7
I2
saa(lp1427
(g1424
NS'2'
S'B'
tp1428
a(dp1429
g7
I4
saa(lp1430
(S'Module Reinforcement Package'
p1431
NS'1'
S'D'
tp1432
a(dp1433
g7
I1
saa(lp1434
(g1431
NS'1'
S'E'
tp1435
a(dp1436
g7
I2
saa(lp1437
(g1431
NS'2'
S'D'
tp1438
a(dp1439
g7
I2
saa(lp1440
(g1431
NS'2'
S'E'
tp1441
a(dp1442
g7
I4
saa(lp1443
(g1431
NS'3'
S'D'
tp1444
a(dp1445
g7
I4
saa(lp1446
(g1431
NS'3'
S'E'
tp1447
a(dp1448
g7
I8
saa(lp1449
(g1431
NS'4'
S'D'
tp1450
a(dp1451
g7
I8
saa(lp1452
(g1431
NS'4'
S'E'
tp1453
a(dp1454
g7
I16
saa(lp1455
(g1431
NS'5'
S'D'
tp1456
a(dp1457
g7
I16
saa(lp1458
(g1431
NS'5'
S'E'
tp1459
a(dp1460
g7
I32
saa(lp1461
(S'Multi-Cannon'
p1462
NS'1'
S'F'
tp1463
a(dp1464
g7
I2
saa(lp1465
(g1462
NS'1'
S'G'
tp1466
a(dp1467
g7
I2
saa(lp1468
(g1462
NS'2'
S'E'
tp1469
a(dp1470
g7
I4
saa(lp1471
(g1462
NS'2'
S'F'
tp1472
a(dp1473
g7
I4
saa(lp1474
(g1462
NS'3'
S'C'
tp1475
a(dp1476
g7
I8
saa(lp1477
(g1462
NS'4'
S'A'
tp1478
a(dp1479
g7
I16
saa(lp1480
(S'Pacifier Frag-Cannon'
p1481
NS'3'
S'C'
tp1482
a(dp1483
g7
I8
saa(lp1484
(S'Pack-Hound Missile Rack'
p1485
NS'2'
S'B'
tp1486
a(dp1487
g7
I4
saa(lp1488
(S'Planetary Approach Suite'
p1489
NS'1'
S'I'
tp1490
a(dp1491
g7
I0
saa(lp1492
(S'Planetary Vehicle Hangar'
p1493
NS'2'
S'G'
tp1494
a(dp1495
g7
I6
saa(lp1496
(g1493
NS'2'
S'H'
tp1497
a(dp1498
g7
I12
saa(lp1499
(g1493
NS'4'
S'G'
tp1500
a(dp1501
g7
I10
saa(lp1502
(g1493
NS'4'
S'H'
tp1503
a(dp1504
g7
I20
saa(lp1505
(g1493
NS'6'
S'G'
tp1506
a(dp1507
g7
I17
saa(lp1508
(g1493
NS'6'
S'H'
tp1509
a(dp1510
g7
I34
saa(lp1511
(S'Plasma Accelerator'
p1512
NS'2'
S'C'
tp1513
a(dp1514
g7
I4
saa(lp1515
(g1512
NS'3'
S'B'
tp1516
a(dp1517
g7
I8
saa(lp1518
(g1512
NS'4'
S'A'
tp1519
a(dp1520
g7
I16
saa(lp1521
(S'Point Defence'
p1522
NS'0'
S'I'
tp1523
a(dp1524
g7
F0.5
saa(lp1525
(S'Power Distributor'
p1526
NS'1'
S'A'
tp1527
a(dp1528
g7
F1.3
saa(lp1529
(g1526
NS'1'
S'B'
tp1530
a(dp1531
g7
I2
saa(lp1532
(g1526
NS'1'
S'C'
tp1533
a(dp1534
g7
F1.3
saa(lp1535
(g1526
NS'1'
S'D'
tp1536
a(dp1537
g7
F0.5
saa(lp1538
(g1526
NS'1'
S'E'
tp1539
a(dp1540
g7
F1.3
saa(lp1541
(g1526
NS'2'
S'A'
tp1542
a(dp1543
g7
F2.5
saa(lp1544
(g1526
NS'2'
S'B'
tp1545
a(dp1546
g7
I4
saa(lp1547
(g1526
NS'2'
S'C'
tp1548
a(dp1549
g7
F2.5
saa(lp1550
(g1526
NS'2'
S'D'
tp1551
a(dp1552
g7
I1
saa(lp1553
(g1526
NS'2'
S'E'
tp1554
a(dp1555
g7
F2.5
saa(lp1556
(g1526
NS'3'
S'A'
tp1557
a(dp1558
g7
I5
saa(lp1559
(g1526
NS'3'
S'B'
tp1560
a(dp1561
g7
I8
saa(lp1562
(g1526
NS'3'
S'C'
tp1563
a(dp1564
g7
I5
saa(lp1565
(g1526
NS'3'
S'D'
tp1566
a(dp1567
g7
I2
saa(lp1568
(g1526
NS'3'
S'E'
tp1569
a(dp1570
g7
I5
saa(lp1571
(g1526
NS'4'
S'A'
tp1572
a(dp1573
g7
I10
saa(lp1574
(g1526
NS'4'
S'B'
tp1575
a(dp1576
g7
I16
saa(lp1577
(g1526
NS'4'
S'C'
tp1578
a(dp1579
g7
I10
saa(lp1580
(g1526
NS'4'
S'D'
tp1581
a(dp1582
g7
I4
saa(lp1583
(g1526
NS'4'
S'E'
tp1584
a(dp1585
g7
I10
saa(lp1586
(g1526
NS'5'
S'A'
tp1587
a(dp1588
g7
I20
saa(lp1589
(g1526
NS'5'
S'B'
tp1590
a(dp1591
g7
I32
saa(lp1592
(g1526
NS'5'
S'C'
tp1593
a(dp1594
g7
I20
saa(lp1595
(g1526
NS'5'
S'D'
tp1596
a(dp1597
g7
I8
saa(lp1598
(g1526
NS'5'
S'E'
tp1599
a(dp1600
g7
I20
saa(lp1601
(g1526
NS'6'
S'A'
tp1602
a(dp1603
g7
I40
saa(lp1604
(g1526
NS'6'
S'B'
tp1605
a(dp1606
g7
I64
saa(lp1607
(g1526
NS'6'
S'C'
tp1608
a(dp1609
g7
I40
saa(lp1610
(g1526
NS'6'
S'D'
tp1611
a(dp1612
g7
I16
saa(lp1613
(g1526
NS'6'
S'E'
tp1614
a(dp1615
g7
I40
saa(lp1616
(g1526
NS'7'
S'A'
tp1617
a(dp1618
g7
I80
saa(lp1619
(g1526
NS'7'
S'B'
tp1620
a(dp1621
g7
I128
saa(lp1622
(g1526
NS'7'
S'C'
tp1623
a(dp1624
g7
I80
saa(lp1625
(g1526
NS'7'
S'D'
tp1626
a(dp1627
g7
I32
saa(lp1628
(g1526
NS'7'
S'E'
tp1629
a(dp1630
g7
I80
saa(lp1631
(g1526
NS'8'
S'A'
tp1632
a(dp1633
g7
I160
saa(lp1634
(g1526
NS'8'
S'B'
tp1635
a(dp1636
g7
I256
saa(lp1637
(g1526
NS'8'
S'C'
tp1638
a(dp1639
g7
I160
saa(lp1640
(g1526
NS'8'
S'D'
tp1641
a(dp1642
g7
I64
saa(lp1643
(g1526
NS'8'
S'E'
tp1644
a(dp1645
g7
I160
saa(lp1646
(S'Power Plant'
p1647
NS'2'
S'A'
tp1648
a(dp1649
g7
F1.3
saa(lp1650
(g1647
NS'2'
S'B'
tp1651
a(dp1652
g7
I2
saa(lp1653
(g1647
NS'2'
S'C'
tp1654
a(dp1655
g7
F1.3
saa(lp1656
(g1647
NS'2'
S'D'
tp1657
a(dp1658
g7
I1
saa(lp1659
(g1647
NS'2'
S'E'
tp1660
a(dp1661
g7
F2.5
saa(lp1662
(g1647
NS'3'
S'A'
tp1663
a(dp1664
g7
F2.5
saa(lp1665
(g1647
NS'3'
S'B'
tp1666
a(dp1667
g7
I4
saa(lp1668
(g1647
NS'3'
S'C'
tp1669
a(dp1670
g7
F2.5
saa(lp1671
(g1647
NS'3'
S'D'
tp1672
a(dp1673
g7
I2
saa(lp1674
(g1647
NS'3'
S'E'
tp1675
a(dp1676
g7
I5
saa(lp1677
(g1647
NS'4'
S'A'
tp1678
a(dp1679
g7
I5
saa(lp1680
(g1647
NS'4'
S'B'
tp1681
a(dp1682
g7
I8
saa(lp1683
(g1647
NS'4'
S'C'
tp1684
a(dp1685
g7
I5
saa(lp1686
(g1647
NS'4'
S'D'
tp1687
a(dp1688
g7
I4
saa(lp1689
(g1647
NS'4'
S'E'
tp1690
a(dp1691
g7
I10
saa(lp1692
(g1647
NS'5'
S'A'
tp1693
a(dp1694
g7
I10
saa(lp1695
(g1647
NS'5'
S'B'
tp1696
a(dp1697
g7
I16
saa(lp1698
(g1647
NS'5'
S'C'
tp1699
a(dp1700
g7
I10
saa(lp1701
(g1647
NS'5'
S'D'
tp1702
a(dp1703
g7
I8
saa(lp1704
(g1647
NS'5'
S'E'
tp1705
a(dp1706
g7
I20
saa(lp1707
(g1647
NS'6'
S'A'
tp1708
a(dp1709
g7
I20
saa(lp1710
(g1647
NS'6'
S'B'
tp1711
a(dp1712
g7
I32
saa(lp1713
(g1647
NS'6'
S'C'
tp1714
a(dp1715
g7
I20
saa(lp1716
(g1647
NS'6'
S'D'
tp1717
a(dp1718
g7
I16
saa(lp1719
(g1647
NS'6'
S'E'
tp1720
a(dp1721
g7
I40
saa(lp1722
(g1647
NS'7'
S'A'
tp1723
a(dp1724
g7
I40
saa(lp1725
(g1647
NS'7'
S'B'
tp1726
a(dp1727
g7
I64
saa(lp1728
(g1647
NS'7'
S'C'
tp1729
a(dp1730
g7
I40
saa(lp1731
(g1647
NS'7'
S'D'
tp1732
a(dp1733
g7
I32
saa(lp1734
(g1647
NS'7'
S'E'
tp1735
a(dp1736
g7
I80
saa(lp1737
(g1647
NS'8'
S'A'
tp1738
a(dp1739
g7
I80
saa(lp1740
(g1647
NS'8'
S'B'
tp1741
a(dp1742
g7
I128
saa(lp1743
(g1647
NS'8'
S'C'
tp1744
a(dp1745
g7
I80
saa(lp1746
(g1647
NS'8'
S'D'
tp1747
a(dp1748
g7
I64
saa(lp1749
(g1647
NS'8'
S'E'
tp1750
a(dp1751
g7
I160
saa(lp1752
(S'Prismatic Shield Generator'
p1753
NS'1'
S'A'
tp1754
a(dp1755
g7
F2.5
saa(lp1756
(g1753
NS'2'
S'A'
tp1757
a(dp1758
g7
I5
saa(lp1759
(g1753
NS'3'
S'A'
tp1760
a(dp1761
g7
I10
saa(lp1762
(g1753
NS'4'
S'A'
tp1763
a(dp1764
g7
I20
saa(lp1765
(g1753
NS'5'
S'A'
tp1766
a(dp1767
g7
I40
saa(lp1768
(g1753
NS'6'
S'A'
tp1769
a(dp1770
g7
I80
saa(lp1771
(g1753
NS'7'
S'A'
tp1772
a(dp1773
g7
I160
saa(lp1774
(g1753
NS'8'
S'A'
tp1775
a(dp1776
g7
I320
saa(lp1777
(S'Prospector Limpet Controller'
p1778
NS'1'
S'A'
tp1779
a(dp1780
g7
F1.3
saa(lp1781
(g1778
NS'1'
S'B'
tp1782
a(dp1783
g7
I2
saa(lp1784
(g1778
NS'1'
S'C'
tp1785
a(dp1786
g7
F1.3
saa(lp1787
(g1778
NS'1'
S'D'
tp1788
a(dp1789
g7
F0.5
saa(lp1790
(g1778
NS'1'
S'E'
tp1791
a(dp1792
g7
F1.3
saa(lp1793
(g1778
NS'3'
S'A'
tp1794
a(dp1795
g7
I5
saa(lp1796
(g1778
NS'3'
S'B'
tp1797
a(dp1798
g7
I8
saa(lp1799
(g1778
NS'3'
S'C'
tp1800
a(dp1801
g7
I5
saa(lp1802
(g1778
NS'3'
S'D'
tp1803
a(dp1804
g7
I2
saa(lp1805
(g1778
NS'3'
S'E'
tp1806
a(dp1807
g7
I5
saa(lp1808
(g1778
NS'5'
S'A'
tp1809
a(dp1810
g7
I20
saa(lp1811
(g1778
NS'5'
S'B'
tp1812
a(dp1813
g7
I32
saa(lp1814
(g1778
NS'5'
S'C'
tp1815
a(dp1816
g7
I20
saa(lp1817
(g1778
NS'5'
S'D'
tp1818
a(dp1819
g7
I8
saa(lp1820
(g1778
NS'5'
S'E'
tp1821
a(dp1822
g7
I20
saa(lp1823
(g1778
NS'7'
S'A'
tp1824
a(dp1825
g7
I80
saa(lp1826
(g1778
NS'7'
S'B'
tp1827
a(dp1828
g7
I128
saa(lp1829
(g1778
NS'7'
S'C'
tp1830
a(dp1831
g7
I80
saa(lp1832
(g1778
NS'7'
S'D'
tp1833
a(dp1834
g7
I32
saa(lp1835
(g1778
NS'7'
S'E'
tp1836
a(dp1837
g7
I80
saa(lp1838
(S'Pulse Disruptor Laser'
p1839
NS'2'
S'E'
tp1840
a(dp1841
g7
I4
saa(lp1842
(S'Pulse Laser'
p1843
NS'1'
S'F'
tp1844
a(dp1845
g7
I2
saa(lp1846
(g1843
NS'1'
S'G'
tp1847
a(dp1848
g7
I2
saa(lp1849
(g1843
NS'2'
S'E'
tp1850
a(dp1851
g7
I4
saa(lp1852
(g1843
NS'2'
S'F'
tp1853
a(dp1854
g7
I4
saa(lp1855
(g1843
NS'3'
S'D'
tp1856
a(dp1857
g7
I8
saa(lp1858
(g1843
NS'3'
S'E'
tp1859
a(dp1860
g7
I8
saa(lp1861
(g1843
NS'3'
S'F'
tp1862
a(dp1863
g7
I8
saa(lp1864
(g1843
NS'4'
S'A'
tp1865
a(dp1866
g7
I16
saa(lp1867
(S'Rail Gun'
p1868
NS'1'
S'D'
tp1869
a(dp1870
g7
I2
saa(lp1871
(g1868
NS'2'
S'B'
tp1872
a(dp1873
g7
I4
saa(lp1874
(S'Reactive Surface Composite'
p1875
g1077
S'1'
S'I'
tp1876
a(dp1877
g7
I5
saa(lp1878
(g1875
g1081
S'1'
S'I'
tp1879
a(dp1880
g7
I60
saa(lp1881
(g1875
g1085
S'1'
S'I'
tp1882
a(dp1883
g7
I42
saa(lp1884
(g1875
g1089
S'1'
S'I'
tp1885
a(dp1886
g7
I42
saa(lp1887
(g1875
g1093
S'1'
S'I'
tp1888
a(dp1889
g7
I165
saa(lp1890
(g1875
g1097
S'1'
S'I'
tp1891
a(dp1892
g7
I27
saa(lp1893
(g1875
g1101
S'1'
S'I'
tp1894
a(dp1895
g7
I27
saa(lp1896
(g1875
g1105
S'1'
S'I'
tp1897
a(dp1898
g7
I47
saa(lp1899
(g1875
g1109
S'1'
S'I'
tp1900
a(dp1901
g7
I26
saa(lp1902
(g1875
g1113
S'1'
S'I'
tp1903
a(dp1904
g7
I63
saa(lp1905
(g1875
g1117
S'1'
S'I'
tp1906
a(dp1907
g7
I8
saa(lp1908
(g1875
g1121
S'1'
S'I'
tp1909
a(dp1910
g7
I87
saa(lp1911
(g1875
g1125
S'1'
S'I'
tp1912
a(dp1913
g7
I60
saa(lp1914
(g1875
g1129
S'1'
S'I'
tp1915
a(dp1916
g7
I87
saa(lp1917
(g1875
g1133
S'1'
S'I'
tp1918
a(dp1919
g7
I87
saa(lp1920
(g1875
g1137
S'1'
S'I'
tp1921
a(dp1922
g7
I38
saa(lp1923
(g1875
g1141
S'1'
S'I'
tp1924
a(dp1925
g7
I2
saa(lp1926
(g1875
g1145
S'1'
S'I'
tp1927
a(dp1928
g7
I60
saa(lp1929
(g1875
g1149
S'1'
S'I'
tp1930
a(dp1931
g7
I8
saa(lp1932
(g1875
g1153
S'1'
S'I'
tp1933
a(dp1934
g7
I60
saa(lp1935
(g1875
g1157
S'1'
S'I'
tp1936
a(dp1937
g7
I8
saa(lp1938
(g1875
g1161
S'1'
S'I'
tp1939
a(dp1940
g7
I23
saa(lp1941
(g1875
g1165
S'1'
S'I'
tp1942
a(dp1943
g7
I87
saa(lp1944
(g1875
g1169
S'1'
S'I'
tp1945
a(dp1946
g7
I53
saa(lp1947
(g1875
g1173
S'1'
S'I'
tp1948
a(dp1949
g7
I4
saa(lp1950
(g1875
g1177
S'1'
S'I'
tp1951
a(dp1952
g7
I150
saa(lp1953
(g1875
g1181
S'1'
S'I'
tp1954
a(dp1955
g7
I23
saa(lp1956
(g1875
g1185
S'1'
S'I'
tp1957
a(dp1958
g7
I63
saa(lp1959
(g1875
g1189
S'1'
S'I'
tp1960
a(dp1961
g7
I150
saa(lp1962
(g1875
g1193
S'1'
S'I'
tp1963
a(dp1964
g7
I9
saa(lp1965
(g1875
g1197
S'1'
S'I'
tp1966
a(dp1967
g7
I9
saa(lp1968
(g1875
g1201
S'1'
S'I'
tp1969
a(dp1970
g7
I35
saa(lp1971
(S'Refinery'
p1972
NS'1'
S'A'
tp1973
a(dp1974
g7
I0
saa(lp1975
(g1972
NS'1'
S'B'
tp1976
a(dp1977
g7
I0
saa(lp1978
(g1972
NS'1'
S'C'
tp1979
a(dp1980
g7
I0
saa(lp1981
(g1972
NS'1'
S'D'
tp1982
a(dp1983
g7
I0
saa(lp1984
(g1972
NS'1'
S'E'
tp1985
a(dp1986
g7
I0
saa(lp1987
(g1972
NS'2'
S'A'
tp1988
a(dp1989
g7
I0
saa(lp1990
(g1972
NS'2'
S'B'
tp1991
a(dp1992
g7
I0
saa(lp1993
(g1972
NS'2'
S'C'
tp1994
a(dp1995
g7
I0
saa(lp1996
(g1972
NS'2'
S'D'
tp1997
a(dp1998
g7
I0
saa(lp1999
(g1972
NS'2'
S'E'
tp2000
a(dp2001
g7
I0
saa(lp2002
(g1972
NS'3'
S'A'
tp2003
a(dp2004
g7
I0
saa(lp2005
(g1972
NS'3'
S'B'
tp2006
a(dp2007
g7
I0
saa(lp2008
(g1972
NS'3'
S'C'
tp2009
a(dp2010
g7
I0
saa(lp2011
(g1972
NS'3'
S'D'
tp2012
a(dp2013
g7
I0
saa(lp2014
(g1972
NS'3'
S'E'
tp2015
a(dp2016
g7
I0
saa(lp2017
(g1972
NS'4'
S'A'
tp2018
a(dp2019
g7
I0
saa(lp2020
(g1972
NS'4'
S'B'
tp2021
a(dp2022
g7
I0
saa(lp2023
(g1972
NS'4'
S'C'
tp2024
a(dp2025
g7
I0
saa(lp2026
(g1972
NS'4'
S'D'
tp2027
a(dp2028
g7
I0
saa(lp2029
(g1972
NS'4'
S'E'
tp2030
a(dp2031
g7
I0
saa(lp2032
(S'Reinforced Alloy'
p2033
g1077
S'1'
S'I'
tp2034
a(dp2035
g7
I3
saa(lp2036
(g2033
g1081
S'1'
S'I'
tp2037
a(dp2038
g7
I30
saa(lp2039
(g2033
g1085
S'1'
S'I'
tp2040
a(dp2041
g7
I21
saa(lp2042
(g2033
g1089
S'1'
S'I'
tp2043
a(dp2044
g7
I21
saa(lp2045
(g2033
g1093
S'1'
S'I'
tp2046
a(dp2047
g7
I83
saa(lp2048
(g2033
g1097
S'1'
S'I'
tp2049
a(dp2050
g7
I14
saa(lp2051
(g2033
g1101
S'1'
S'I'
tp2052
a(dp2053
g7
I14
saa(lp2054
(g2033
g1105
S'1'
S'I'
tp2055
a(dp2056
g7
I23
saa(lp2057
(g2033
g1109
S'1'
S'I'
tp2058
a(dp2059
g7
I13
saa(lp2060
(g2033
g1113
S'1'
S'I'
tp2061
a(dp2062
g7
I32
saa(lp2063
(g2033
g1117
S'1'
S'I'
tp2064
a(dp2065
g7
I4
saa(lp2066
(g2033
g1121
S'1'
S'I'
tp2067
a(dp2068
g7
I44
saa(lp2069
(g2033
g1125
S'1'
S'I'
tp2070
a(dp2071
g7
I30
saa(lp2072
(g2033
g1129
S'1'
S'I'
tp2073
a(dp2074
g7
I44
saa(lp2075
(g2033
g1133
S'1'
S'I'
tp2076
a(dp2077
g7
I44
saa(lp2078
(g2033
g1137
S'1'
S'I'
tp2079
a(dp2080
g7
I19
saa(lp2081
(g2033
g1141
S'1'
S'I'
tp2082
a(dp2083
g7
I1
saa(lp2084
(g2033
g1145
S'1'
S'I'
tp2085
a(dp2086
g7
I30
saa(lp2087
(g2033
g1149
S'1'
S'I'
tp2088
a(dp2089
g7
I4
saa(lp2090
(g2033
g1153
S'1'
S'I'
tp2091
a(dp2092
g7
I30
saa(lp2093
(g2033
g1157
S'1'
S'I'
tp2094
a(dp2095
g7
I4
saa(lp2096
(g2033
g1161
S'1'
S'I'
tp2097
a(dp2098
g7
I12
saa(lp2099
(g2033
g1165
S'1'
S'I'
tp2100
a(dp2101
g7
I21
saa(lp2102
(g2033
g1169
S'1'
S'I'
tp2103
a(dp2104
g7
I26
saa(lp2105
(g2033
g1173
S'1'
S'I'
tp2106
a(dp2107
g7
I2
saa(lp2108
(g2033
g1177
S'1'
S'I'
tp2109
a(dp2110
g7
I75
saa(lp2111
(g2033
g1181
S'1'
S'I'
tp2112
a(dp2113
g7
I12
saa(lp2114
(g2033
g1185
S'1'
S'I'
tp2115
a(dp2116
g7
I32
saa(lp2117
(g2033
g1189
S'1'
S'I'
tp2118
a(dp2119
g7
I75
saa(lp2120
(g2033
g1193
S'1'
S'I'
tp2121
a(dp2122
g7
I5
saa(lp2123
(g2033
g1197
S'1'
S'I'
tp2124
a(dp2125
g7
I5
saa(lp2126
(g2033
g1201
S'1'
S'I'
tp2127
a(dp2128
g7
I17
saa(lp2129
(S'Remote Release Flak Launcher'
p2130
NS'2'
S'B'
tp2131
a(dp2132
g7
I4
saa(lp2133
(S'Repair Limpet Controller'
p2134
NS'1'
S'A'
tp2135
a(dp2136
g7
F1.3
saa(lp2137
(g2134
NS'1'
S'B'
tp2138
a(dp2139
g7
I2
saa(lp2140
(g2134
NS'1'
S'C'
tp2141
a(dp2142
g7
F1.3
saa(lp2143
(g2134
NS'1'
S'D'
tp2144
a(dp2145
g7
F0.5
saa(lp2146
(g2134
NS'1'
S'E'
tp2147
a(dp2148
g7
F1.3
saa(lp2149
(g2134
NS'3'
S'A'
tp2150
a(dp2151
g7
I5
saa(lp2152
(g2134
NS'3'
S'B'
tp2153
a(dp2154
g7
I8
saa(lp2155
(g2134
NS'3'
S'C'
tp2156
a(dp2157
g7
I5
saa(lp2158
(g2134
NS'3'
S'D'
tp2159
a(dp2160
g7
I2
saa(lp2161
(g2134
NS'3'
S'E'
tp2162
a(dp2163
g7
I5
saa(lp2164
(g2134
NS'5'
S'A'
tp2165
a(dp2166
g7
I20
saa(lp2167
(g2134
NS'5'
S'B'
tp2168
a(dp2169
g7
I32
saa(lp2170
(g2134
NS'5'
S'C'
tp2171
a(dp2172
g7
I20
saa(lp2173
(g2134
NS'5'
S'D'
tp2174
a(dp2175
g7
I8
saa(lp2176
(g2134
NS'5'
S'E'
tp2177
a(dp2178
g7
I20
saa(lp2179
(g2134
NS'7'
S'A'
tp2180
a(dp2181
g7
I80
saa(lp2182
(g2134
NS'7'
S'B'
tp2183
a(dp2184
g7
I128
saa(lp2185
(g2134
NS'7'
S'C'
tp2186
a(dp2187
g7
I80
saa(lp2188
(g2134
NS'7'
S'D'
tp2189
a(dp2190
g7
I32
saa(lp2191
(g2134
NS'7'
S'E'
tp2192
a(dp2193
g7
I80
saa(lp2194
(S'Research Limpet Controller'
p2195
NS'1'
S'A'
tp2196
ag1780
aa(lp2197
(g2195
NS'1'
S'B'
tp2198
ag1783
aa(lp2199
(g2195
NS'1'
S'C'
tp2200
ag1786
aa(lp2201
(g2195
NS'1'
S'D'
tp2202
ag1789
aa(lp2203
(g2195
NS'1'
S'E'
tp2204
ag1792
aa(lp2205
(g2195
NS'3'
S'A'
tp2206
ag1795
aa(lp2207
(g2195
NS'3'
S'B'
tp2208
ag1798
aa(lp2209
(g2195
NS'3'
S'C'
tp2210
ag1801
aa(lp2211
(g2195
NS'3'
S'D'
tp2212
ag1804
aa(lp2213
(g2195
NS'3'
S'E'
tp2214
ag1807
aa(lp2215
(g2195
NS'5'
S'A'
tp2216
ag1810
aa(lp2217
(g2195
NS'5'
S'B'
tp2218
ag1813
aa(lp2219
(g2195
NS'5'
S'C'
tp2220
ag1816
aa(lp2221
(g2195
NS'5'
S'D'
tp2222
ag1819
aa(lp2223
(g2195
NS'5'
S'E'
tp2224
ag1822
aa(lp2225
(g2195
NS'7'
S'A'
tp2226
ag1825
aa(lp2227
(g2195
NS'7'
S'B'
tp2228
ag1828
aa(lp2229
(g2195
NS'7'
S'C'
tp2230
ag1831
aa(lp2231
(g2195
NS'7'
S'D'
tp2232
ag1834
aa(lp2233
(g2195
NS'7'
S'E'
tp2234
ag1837
aa(lp2235
(S'Retributor Beam Laser'
p2236
NS'1'
S'E'
tp2237
a(dp2238
g7
I2
saa(lp2239
(S'Rocket Propelled FSD Disruptor'
p2240
NS'2'
S'B'
tp2241
a(dp2242
g7
I4
saa(lp2243
(S'Sensors'
p2244
NS'1'
S'A'
tp2245
a(dp2246
g7
F1.3
saa(lp2247
(g2244
NS'1'
S'B'
tp2248
a(dp2249
g7
I2
saa(lp2250
(g2244
NS'1'
S'C'
tp2251
a(dp2252
g7
F1.3
saa(lp2253
(g2244
NS'1'
S'D'
tp2254
a(dp2255
g7
F0.5
saa(lp2256
(g2244
NS'1'
S'E'
tp2257
a(dp2258
g7
F1.3
saa(lp2259
(g2244
NS'2'
S'A'
tp2260
a(dp2261
g7
F2.5
saa(lp2262
(g2244
NS'2'
S'B'
tp2263
a(dp2264
g7
I4
saa(lp2265
(g2244
NS'2'
S'C'
tp2266
a(dp2267
g7
F2.5
saa(lp2268
(g2244
NS'2'
S'D'
tp2269
a(dp2270
g7
I1
saa(lp2271
(g2244
NS'2'
S'E'
tp2272
a(dp2273
g7
F2.5
saa(lp2274
(g2244
NS'3'
S'A'
tp2275
a(dp2276
g7
I5
saa(lp2277
(g2244
NS'3'
S'B'
tp2278
a(dp2279
g7
I8
saa(lp2280
(g2244
NS'3'
S'C'
tp2281
a(dp2282
g7
I5
saa(lp2283
(g2244
NS'3'
S'D'
tp2284
a(dp2285
g7
I2
saa(lp2286
(g2244
NS'3'
S'E'
tp2287
a(dp2288
g7
I5
saa(lp2289
(g2244
NS'4'
S'A'
tp2290
a(dp2291
g7
I10
saa(lp2292
(g2244
NS'4'
S'B'
tp2293
a(dp2294
g7
I16
saa(lp2295
(g2244
NS'4'
S'C'
tp2296
a(dp2297
g7
I10
saa(lp2298
(g2244
NS'4'
S'D'
tp2299
a(dp2300
g7
I4
saa(lp2301
(g2244
NS'4'
S'E'
tp2302
a(dp2303
g7
I10
saa(lp2304
(g2244
NS'5'
S'A'
tp2305
a(dp2306
g7
I20
saa(lp2307
(g2244
NS'5'
S'B'
tp2308
a(dp2309
g7
I32
saa(lp2310
(g2244
NS'5'
S'C'
tp2311
a(dp2312
g7
I20
saa(lp2313
(g2244
NS'5'
S'D'
tp2314
a(dp2315
g7
I8
saa(lp2316
(g2244
NS'5'
S'E'
tp2317
a(dp2318
g7
I20
saa(lp2319
(g2244
NS'6'
S'A'
tp2320
a(dp2321
g7
I40
saa(lp2322
(g2244
NS'6'
S'B'
tp2323
a(dp2324
g7
I64
saa(lp2325
(g2244
NS'6'
S'C'
tp2326
a(dp2327
g7
I40
saa(lp2328
(g2244
NS'6'
S'D'
tp2329
a(dp2330
g7
I16
saa(lp2331
(g2244
NS'6'
S'E'
tp2332
a(dp2333
g7
I40
saa(lp2334
(g2244
NS'7'
S'A'
tp2335
a(dp2336
g7
I80
saa(lp2337
(g2244
NS'7'
S'B'
tp2338
a(dp2339
g7
I128
saa(lp2340
(g2244
NS'7'
S'C'
tp2341
a(dp2342
g7
I80
saa(lp2343
(g2244
NS'7'
S'D'
tp2344
a(dp2345
g7
I32
saa(lp2346
(g2244
NS'7'
S'E'
tp2347
a(dp2348
g7
I80
saa(lp2349
(g2244
NS'8'
S'A'
tp2350
a(dp2351
g7
I160
saa(lp2352
(g2244
NS'8'
S'B'
tp2353
a(dp2354
g7
I256
saa(lp2355
(g2244
NS'8'
S'C'
tp2356
a(dp2357
g7
I160
saa(lp2358
(g2244
NS'8'
S'D'
tp2359
a(dp2360
g7
I64
saa(lp2361
(g2244
NS'8'
S'E'
tp2362
a(dp2363
g7
I160
saa(lp2364
(S'Shield Booster'
p2365
NS'0'
S'A'
tp2366
a(dp2367
g7
F3.5
saa(lp2368
(g2365
NS'0'
S'B'
tp2369
a(dp2370
g7
I3
saa(lp2371
(g2365
NS'0'
S'C'
tp2372
a(dp2373
g7
I2
saa(lp2374
(g2365
NS'0'
S'D'
tp2375
a(dp2376
g7
I1
saa(lp2377
(g2365
NS'0'
S'E'
tp2378
a(dp2379
g7
F0.5
saa(lp2380
(S'Shield Cell Bank'
p2381
NS'1'
S'A'
tp2382
a(dp2383
g7
F1.3
saa(lp2384
(g2381
NS'1'
S'B'
tp2385
a(dp2386
g7
I2
saa(lp2387
(g2381
NS'1'
S'C'
tp2388
a(dp2389
g7
F1.3
saa(lp2390
(g2381
NS'1'
S'D'
tp2391
a(dp2392
g7
F0.5
saa(lp2393
(g2381
NS'1'
S'E'
tp2394
a(dp2395
g7
F1.3
saa(lp2396
(g2381
NS'2'
S'A'
tp2397
a(dp2398
g7
F2.5
saa(lp2399
(g2381
NS'2'
S'B'
tp2400
a(dp2401
g7
I4
saa(lp2402
(g2381
NS'2'
S'C'
tp2403
a(dp2404
g7
F2.5
saa(lp2405
(g2381
NS'2'
S'D'
tp2406
a(dp2407
g7
I1
saa(lp2408
(g2381
NS'2'
S'E'
tp2409
a(dp2410
g7
F2.5
saa(lp2411
(g2381
NS'3'
S'A'
tp2412
a(dp2413
g7
I5
saa(lp2414
(g2381
NS'3'
S'B'
tp2415
a(dp2416
g7
I8
saa(lp2417
(g2381
NS'3'
S'C'
tp2418
a(dp2419
g7
I5
saa(lp2420
(g2381
NS'3'
S'D'
tp2421
a(dp2422
g7
I2
saa(lp2423
(g2381
NS'3'
S'E'
tp2424
a(dp2425
g7
I5
saa(lp2426
(g2381
NS'4'
S'A'
tp2427
a(dp2428
g7
I10
saa(lp2429
(g2381
NS'4'
S'B'
tp2430
a(dp2431
g7
I16
saa(lp2432
(g2381
NS'4'
S'C'
tp2433
a(dp2434
g7
I10
saa(lp2435
(g2381
NS'4'
S'D'
tp2436
a(dp2437
g7
I4
saa(lp2438
(g2381
NS'4'
S'E'
tp2439
a(dp2440
g7
I10
saa(lp2441
(g2381
NS'5'
S'A'
tp2442
a(dp2443
g7
I20
saa(lp2444
(g2381
NS'5'
S'B'
tp2445
a(dp2446
g7
I32
saa(lp2447
(g2381
NS'5'
S'C'
tp2448
a(dp2449
g7
I20
saa(lp2450
(g2381
NS'5'
S'D'
tp2451
a(dp2452
g7
I8
saa(lp2453
(g2381
NS'5'
S'E'
tp2454
a(dp2455
g7
I20
saa(lp2456
(g2381
NS'6'
S'A'
tp2457
a(dp2458
g7
I40
saa(lp2459
(g2381
NS'6'
S'B'
tp2460
a(dp2461
g7
I64
saa(lp2462
(g2381
NS'6'
S'C'
tp2463
a(dp2464
g7
I40
saa(lp2465
(g2381
NS'6'
S'D'
tp2466
a(dp2467
g7
I16
saa(lp2468
(g2381
NS'6'
S'E'
tp2469
a(dp2470
g7
I40
saa(lp2471
(g2381
NS'7'
S'A'
tp2472
a(dp2473
g7
I80
saa(lp2474
(g2381
NS'7'
S'B'
tp2475
a(dp2476
g7
I128
saa(lp2477
(g2381
NS'7'
S'C'
tp2478
a(dp2479
g7
I80
saa(lp2480
(g2381
NS'7'
S'D'
tp2481
a(dp2482
g7
I32
saa(lp2483
(g2381
NS'7'
S'E'
tp2484
a(dp2485
g7
I80
saa(lp2486
(g2381
NS'8'
S'A'
tp2487
a(dp2488
g7
I160
saa(lp2489
(g2381
NS'8'
S'B'
tp2490
a(dp2491
g7
I256
saa(lp2492
(g2381
NS'8'
S'C'
tp2493
a(dp2494
g7
I160
saa(lp2495
(g2381
NS'8'
S'D'
tp2496
a(dp2497
g7
I64
saa(lp2498
(g2381
NS'8'
S'E'
tp2499
a(dp2500
g7
I160
saa(lp2501
(S'Shield Generator'
p2502
NS'1'
S'A'
tp2503
a(dp2504
g7
F1.3
saa(lp2505
(g2502
NS'2'
S'A'
tp2506
a(dp2507
g7
F2.5
saa(lp2508
(g2502
NS'2'
S'B'
tp2509
a(dp2510
g7
I4
saa(lp2511
(g2502
NS'2'
S'C'
tp2512
a(dp2513
g7
F2.5
saa(lp2514
(g2502
NS'2'
S'D'
tp2515
a(dp2516
g7
I1
saa(lp2517
(g2502
NS'2'
S'E'
tp2518
a(dp2519
g7
F2.5
saa(lp2520
(g2502
NS'3'
S'A'
tp2521
a(dp2522
g7
I5
saa(lp2523
(g2502
NS'3'
S'B'
tp2524
a(dp2525
g7
I8
saa(lp2526
(g2502
NS'3'
S'C'
tp2527
a(dp2528
g7
I5
saa(lp2529
(g2502
NS'3'
S'D'
tp2530
a(dp2531
g7
I2
saa(lp2532
(g2502
NS'3'
S'E'
tp2533
a(dp2534
g7
I5
saa(lp2535
(g2502
NS'4'
S'A'
tp2536
a(dp2537
g7
I10
saa(lp2538
(g2502
NS'4'
S'B'
tp2539
a(dp2540
g7
I16
saa(lp2541
(g2502
NS'4'
S'C'
tp2542
a(dp2543
g7
I10
saa(lp2544
(g2502
NS'4'
S'D'
tp2545
a(dp2546
g7
I4
saa(lp2547
(g2502
NS'4'
S'E'
tp2548
a(dp2549
g7
I10
saa(lp2550
(g2502
NS'5'
S'A'
tp2551
a(dp2552
g7
I20
saa(lp2553
(g2502
NS'5'
S'B'
tp2554
a(dp2555
g7
I32
saa(lp2556
(g2502
NS'5'
S'C'
tp2557
a(dp2558
g7
I20
saa(lp2559
(g2502
NS'5'
S'D'
tp2560
a(dp2561
g7
I8
saa(lp2562
(g2502
NS'5'
S'E'
tp2563
a(dp2564
g7
I20
saa(lp2565
(g2502
NS'6'
S'A'
tp2566
a(dp2567
g7
I40
saa(lp2568
(g2502
NS'6'
S'B'
tp2569
a(dp2570
g7
I64
saa(lp2571
(g2502
NS'6'
S'C'
tp2572
a(dp2573
g7
I40
saa(lp2574
(g2502
NS'6'
S'D'
tp2575
a(dp2576
g7
I16
saa(lp2577
(g2502
NS'6'
S'E'
tp2578
a(dp2579
g7
I40
saa(lp2580
(g2502
NS'7'
S'A'
tp2581
a(dp2582
g7
I80
saa(lp2583
(g2502
NS'7'
S'B'
tp2584
a(dp2585
g7
I128
saa(lp2586
(g2502
NS'7'
S'C'
tp2587
a(dp2588
g7
I80
saa(lp2589
(g2502
NS'7'
S'D'
tp2590
a(dp2591
g7
I32
saa(lp2592
(g2502
NS'7'
S'E'
tp2593
a(dp2594
g7
I80
saa(lp2595
(g2502
NS'8'
S'A'
tp2596
a(dp2597
g7
I160
saa(lp2598
(g2502
NS'8'
S'B'
tp2599
a(dp2600
g7
I256
saa(lp2601
(g2502
NS'8'
S'C'
tp2602
a(dp2603
g7
I160
saa(lp2604
(g2502
NS'8'
S'D'
tp2605
a(dp2606
g7
I64
saa(lp2607
(g2502
NS'8'
S'E'
tp2608
a(dp2609
g7
I160
saa(lp2610
(S'Shock Mine Launcher'
p2611
NS'1'
S'I'
tp2612
a(dp2613
g7
I2
saa(lp2614
(S'Shutdown Field Neutraliser'
p2615
NS'0'
S'F'
tp2616
a(dp2617
g7
F1.3
saa(lp2618
(S'Standard Docking Computer'
p2619
NS'1'
S'E'
tp2620
a(dp2621
g7
I0
saa(lp2622
(S'Thrusters'
p2623
NS'2'
S'A'
tp2624
a(dp2625
g7
F2.5
saa(lp2626
(g2623
NS'2'
S'B'
tp2627
a(dp2628
g7
I4
saa(lp2629
(g2623
NS'2'
S'C'
tp2630
a(dp2631
g7
F2.5
saa(lp2632
(g2623
NS'2'
S'D'
tp2633
a(dp2634
g7
I1
saa(lp2635
(g2623
NS'2'
S'E'
tp2636
a(dp2637
g7
F2.5
saa(lp2638
(g2623
NS'3'
S'A'
tp2639
a(dp2640
g7
I5
saa(lp2641
(g2623
NS'3'
S'B'
tp2642
a(dp2643
g7
I8
saa(lp2644
(g2623
NS'3'
S'C'
tp2645
a(dp2646
g7
I5
saa(lp2647
(g2623
NS'3'
S'D'
tp2648
a(dp2649
g7
I2
saa(lp2650
(g2623
NS'3'
S'E'
tp2651
a(dp2652
g7
I5
saa(lp2653
(g2623
NS'4'
S'A'
tp2654
a(dp2655
g7
I10
saa(lp2656
(g2623
NS'4'
S'B'
tp2657
a(dp2658
g7
I16
saa(lp2659
(g2623
NS'4'
S'C'
tp2660
a(dp2661
g7
I10
saa(lp2662
(g2623
NS'4'
S'D'
tp2663
a(dp2664
g7
I4
saa(lp2665
(g2623
NS'4'
S'E'
tp2666
a(dp2667
g7
I10
saa(lp2668
(g2623
NS'5'
S'A'
tp2669
a(dp2670
g7
I20
saa(lp2671
(g2623
NS'5'
S'B'
tp2672
a(dp2673
g7
I32
saa(lp2674
(g2623
NS'5'
S'C'
tp2675
a(dp2676
g7
I20
saa(lp2677
(g2623
NS'5'
S'D'
tp2678
a(dp2679
g7
I8
saa(lp2680
(g2623
NS'5'
S'E'
tp2681
a(dp2682
g7
I20
saa(lp2683
(g2623
NS'6'
S'A'
tp2684
a(dp2685
g7
I40
saa(lp2686
(g2623
NS'6'
S'B'
tp2687
a(dp2688
g7
I64
saa(lp2689
(g2623
NS'6'
S'C'
tp2690
a(dp2691
g7
I40
saa(lp2692
(g2623
NS'6'
S'D'
tp2693
a(dp2694
g7
I16
saa(lp2695
(g2623
NS'6'
S'E'
tp2696
a(dp2697
g7
I40
saa(lp2698
(g2623
NS'7'
S'A'
tp2699
a(dp2700
g7
I80
saa(lp2701
(g2623
NS'7'
S'B'
tp2702
a(dp2703
g7
I128
saa(lp2704
(g2623
NS'7'
S'C'
tp2705
a(dp2706
g7
I80
saa(lp2707
(g2623
NS'7'
S'D'
tp2708
a(dp2709
g7
I32
saa(lp2710
(g2623
NS'7'
S'E'
tp2711
a(dp2712
g7
I80
saa(lp2713
(g2623
NS'8'
S'A'
tp2714
a(dp2715
g7
I160
saa(lp2716
(g2623
NS'8'
S'B'
tp2717
a(dp2718
g7
I256
saa(lp2719
(g2623
NS'8'
S'C'
tp2720
a(dp2721
g7
I160
saa(lp2722
(g2623
NS'8'
S'D'
tp2723
a(dp2724
g7
I64
saa(lp2725
(g2623
NS'8'
S'E'
tp2726
a(dp2727
g7
I160
saa(lp2728
(S'Torpedo Pylon'
p2729
NS'1'
S'I'
tp2730
a(dp2731
g7
I2
saa(lp2732
(g2729
NS'2'
S'I'
tp2733
a(dp2734
g7
I4
saa(lp2735
(S'Xeno Scanner'
p2736
NS'0'
S'E'
tp2737
a(dp2738
g7
F1.3
saatRp2739
.