ccollections
OrderedDict
p1
((lp2
(lp3
(S'AX Missile Rack'
p4
NS'2'
S'B'
tp5
a(dp6
S'mass'
p7
I4
saa(lp8
(S'AX Multi-Cannon'
p9
NS'2'
S'E'
tp10
a(dp11
g7
I4
saa(lp12
(g9
NS'2'
S'F'
tp13
a(dp14
g7
I4
saa(lp15
(S'Advanced Discovery Scanner'
p16
NS'1'
S'C'
tp17
a(dp18
g7
I2
saa(lp19
(S'Advanced Plasma Accelerator'
p20
NS'3'
S'B'
tp21
a(dp22
g7
I8
saa(lp23
(S'Auto Field-Maintenance Unit'
p24
NS'1'
S'A'
tp25
a(dp26
g7
I0
saa(lp27
(g24
NS'1'
S'B'
tp28
a(dp29
g7
I0
saa(lp30
(g24
NS'1'
S'C'
tp31
a(dp32
g7
I0
saa(lp33
(g24
NS'1'
S'D'
tp34
a(dp35
g7
I0
saa(lp36
(g24
NS'1'
S'E'
tp37
a(dp38
g7
I0
saa(lp39
(g24
NS'2'
S'A'
tp40
a(dp41
g7
I0
saa(lp42
(g24
NS'2'
S'B'
tp43
a(dp44
g7
I0
saa(lp45
(g24
NS'2'
S'C'
tp46
a(dp47
g7
I0
saa(lp48
(g24
NS'2'
S'D'
tp49
a(dp50
g7
I0
saa(lp51
(g24
NS'2'
S'E'
tp52
a(dp53
g7
I0
saa(lp54
(g24
NS'3'
S'A'
tp55
a(dp56
g7
I0
saa(lp57
(g24
NS'3'
S'B'
tp58
a(dp59
g7
I0
saa(lp60
(g24
NS'3'
S'C'
tp61
a(dp62
g7
I0
saa(lp63
(g24
NS'3'
S'D'
tp64
a(dp65
g7
I0
saa(lp66
(g24
NS'3'
S'E'
tp67
a(dp68
g7
I0
saa(lp69
(g24
NS'4'
S'A'
tp70
a(dp71
g7
I0
saa(lp72
(g24
NS'4'
S'B'
tp73
a(dp74
g7
I0
saa(lp75
(g24
NS'4'
S'C'
tp76
a(dp77
g7
I0
saa(lp78
(g24
NS'4'
S'D'
tp79
a(dp80
g7
I0
saa(lp81
(g24
NS'4'
S'E'
tp82
a(dp83
g7
I0
saa(lp84
(g24
NS'5'
S'A'
tp85
a(dp86
g7
I0
saa(lp87
(g24
NS'5'
S'B'
tp88
a(dp89
g7
I0
saa(lp90
(g24
NS'5'
S'C'
tp91
a(dp92
g7
I0
saa(lp93
(g24
NS'5'
S'D'
tp94
a(dp95
g7
I0
saa(lp96
(g24
NS'5'
S'E'
tp97
a(dp98
g7
I0
saa(lp99
(g24
NS'6'
S'A'
tp100
a(dp101
g7
I0
saa(lp102
(g24
NS'6'
S'B'
tp103
a(dp104
g7
I0
saa(lp105
(g24
NS'6'
S'C'
tp106
a(dp107
g7
I0
saa(lp108
(g24
NS'6'
S'D'
tp109
a(dp110
g7
I0
saa(lp111
(g24
NS'6'
S'E'
tp112
a(dp113
g7
I0
saa(lp114
(g24
NS'7'
S'A'
tp115
a(dp116
g7
I0
saa(lp117
(g24
NS'7'
S'B'
tp118
a(dp119
g7
I0
saa(lp120
(g24
NS'7'
S'C'
tp121
a(dp122
g7
I0
saa(lp123
(g24
NS'7'
S'D'
tp124
a(dp125
g7
I0
saa(lp126
(g24
NS'7'
S'E'
tp127
a(dp128
g7
I0
saa(lp129
(g24
NS'8'
S'A'
tp130
a(dp131
g7
I0
saa(lp132
(g24
NS'8'
S'B'
tp133
a(dp134
g7
I0
saa(lp135
(g24
NS'8'
S'C'
tp136
a(dp137
g7
I0
saa(lp138
(g24
NS'8'
S'D'
tp139
a(dp140
g7
I0
saa(lp141
(g24
NS'8'
S'E'
tp142
a(dp143
g7
I0
saa(lp144
(S'Basic Discovery Scanner'
p145
NS'1'
S'E'
tp146
a(dp147
g7
I2
saa(lp148
(S'Beam Laser'
p149
NS'1'
S'E'
tp150
a(dp151
g7
I2
saa(lp152
(g149
NS'1'
S'F'
tp153
a(dp154
g7
I2
saa(lp155
(g149
NS'2'
S'D'
tp156
a(dp157
g7
I4
saa(lp158
(g149
NS'2'
S'E'
tp159
a(dp160
g7
I4
saa(lp161
(g149
NS'3'
S'C'
tp162
a(dp163
g7
I8
saa(lp164
(g149
NS'3'
S'D'
tp165
a(dp166
g7
I8
saa(lp167
(g149
NS'4'
S'A'
tp168
a(dp169
g7
I16
saa(lp170
(S'Bi-Weave Shield Generator'
p171
NS'1'
S'C'
tp172
a(dp173
g7
F1.3
saa(lp174
(g171
NS'2'
S'C'
tp175
a(dp176
g7
F2.5
saa(lp177
(g171
NS'3'
S'C'
tp178
a(dp179
g7
I5
saa(lp180
(g171
NS'4'
S'C'
tp181
a(dp182
g7
I10
saa(lp183
(g171
NS'5'
S'C'
tp184
a(dp185
g7
I20
saa(lp186
(g171
NS'6'
S'C'
tp187
a(dp188
g7
I40
saa(lp189
(g171
NS'7'
S'C'
tp190
a(dp191
g7
I80
saa(lp192
(g171
NS'8'
S'C'
tp193
a(dp194
g7
I160
saa(lp195
(S'Burst Laser'
p196
NS'1'
S'F'
tp197
a(dp198
g7
I2
saa(lp199
(g196
NS'1'
S'G'
tp200
a(dp201
g7
I2
saa(lp202
(g196
NS'2'
S'E'
tp203
a(dp204
g7
I4
saa(lp205
(g196
NS'2'
S'F'
tp206
a(dp207
g7
I4
saa(lp208
(g196
NS'3'
S'D'
tp209
a(dp210
g7
I8
saa(lp211
(g196
NS'3'
S'E'
tp212
a(dp213
g7
I8
saa(lp214
(g196
NS'4'
S'E'
tp215
a(dp216
g7
I16
saa(lp217
(S'Business Class Passenger Cabin'
p218
NS'3'
S'D'
tp219
a(dp220
g7
I5
saa(lp221
(g218
NS'4'
S'D'
tp222
a(dp223
g7
I10
saa(lp224
(g218
NS'5'
S'D'
tp225
a(dp226
g7
I20
saa(lp227
(g218
NS'6'
S'D'
tp228
a(dp229
g7
I40
saa(lp230
(S'Cannon'
p231
NS'1'
S'D'
tp232
a(dp233
g7
I2
saa(lp234
(g231
NS'1'
S'E'
tp235
a(dp236
g7
I2
saa(lp237
(g231
NS'1'
S'F'
tp238
a(dp239
g7
I2
saa(lp240
(g231
NS'2'
S'D'
tp241
a(dp242
g7
I4
saa(lp243
(g231
NS'2'
S'E'
tp244
a(dp245
g7
I4
saa(lp246
(g231
NS'3'
S'C'
tp247
a(dp248
g7
I8
saa(lp249
(g231
NS'3'
S'D'
tp250
a(dp251
g7
I8
saa(lp252
(g231
NS'4'
S'B'
tp253
a(dp254
g7
I16
saa(lp255
(S'Cargo Rack'
p256
NS'1'
S'E'
tp257
a(dp258
g7
I0
saa(lp259
(g256
NS'2'
S'E'
tp260
a(dp261
g7
I0
saa(lp262
(g256
NS'3'
S'E'
tp263
a(dp264
g7
I0
saa(lp265
(g256
NS'4'
S'E'
tp266
a(dp267
g7
I0
saa(lp268
(g256
NS'5'
S'E'
tp269
a(dp270
g7
I0
saa(lp271
(g256
NS'6'
S'E'
tp272
a(dp273
g7
I0
saa(lp274
(g256
NS'7'
S'E'
tp275
a(dp276
g7
I0
saa(lp277
(g256
NS'8'
S'E'
tp278
a(dp279
g7
I0
saa(lp280
(S'Cargo Scanner'
p281
NS'0'
S'A'
tp282
a(dp283
g7
F1.3
saa(lp284
(g281
NS'0'
S'B'
tp285
a(dp286
g7
F1.3
saa(lp287
(g281
NS'0'
S'C'
tp288
a(dp289
g7
F1.3
saa(lp290
(g281
NS'0'
S'D'
tp291
a(dp292
g7
F1.3
saa(lp293
(g281
NS'0'
S'E'
tp294
a(dp295
g7
F1.3
saa(lp296
(S'Chaff Launcher'
p297
NS'0'
S'I'
tp298
a(dp299
g7
F1.3
saa(lp300
(S'Collector Limpet Controller'
p301
NS'1'
S'A'
tp302
a(dp303
g7
I2
saa(lp304
(g301
NS'1'
S'B'
tp305
a(dp306
g7
I2
saa(lp307
(g301
NS'1'
S'C'
tp308
a(dp309
g7
F1.3
saa(lp310
(g301
NS'1'
S'D'
tp311
a(dp312
g7
F0.5
saa(lp313
(g301
NS'1'
S'E'
tp314
a(dp315
g7
F0.5
saa(lp316
(g301
NS'3'
S'A'
tp317
a(dp318
g7
I8
saa(lp319
(g301
NS'3'
S'B'
tp320
a(dp321
g7
I8
saa(lp322
(g301
NS'3'
S'C'
tp323
a(dp324
g7
I5
saa(lp325
(g301
NS'3'
S'D'
tp326
a(dp327
g7
I2
saa(lp328
(g301
NS'3'
S'E'
tp329
a(dp330
g7
I2
saa(lp331
(g301
NS'5'
S'A'
tp332
a(dp333
g7
I32
saa(lp334
(g301
NS'5'
S'B'
tp335
a(dp336
g7
I32
saa(lp337
(g301
NS'5'
S'C'
tp338
a(dp339
g7
I20
saa(lp340
(g301
NS'5'
S'D'
tp341
a(dp342
g7
I8
saa(lp343
(g301
NS'5'
S'E'
tp344
a(dp345
g7
I8
saa(lp346
(g301
NS'7'
S'A'
tp347
a(dp348
g7
I128
saa(lp349
(g301
NS'7'
S'B'
tp350
a(dp351
g7
I128
saa(lp352
(g301
NS'7'
S'C'
tp353
a(dp354
g7
I80
saa(lp355
(g301
NS'7'
S'D'
tp356
a(dp357
g7
I32
saa(lp358
(g301
NS'7'
S'E'
tp359
a(dp360
g7
I32
saa(lp361
(S'Corrosion Resistant Cargo Rack'
p362
NS'1'
S'E'
tp363
a(dp364
g7
I0
saa(lp365
(g362
NS'1'
S'F'
tp366
a(dp367
g7
I0
saa(lp368
(S'Cytoscrambler Burst Laser'
p369
NS'1'
S'F'
tp370
a(dp371
g7
I2
saa(lp372
(S'Detailed Surface Scanner'
p373
NS'1'
S'C'
tp374
a(dp375
g7
F1.3
saa(lp376
(S'Economy Class Passenger Cabin'
p377
NS'2'
S'E'
tp378
a(dp379
g7
F2.5
saa(lp380
(g377
NS'3'
S'E'
tp381
a(dp382
g7
I5
saa(lp383
(g377
NS'4'
S'E'
tp384
a(dp385
g7
I10
saa(lp386
(g377
NS'5'
S'E'
tp387
a(dp388
g7
I20
saa(lp389
(g377
NS'6'
S'E'
tp390
a(dp391
g7
I40
saa(lp392
(S'Electronic Countermeasure'
p393
NS'0'
S'F'
tp394
a(dp395
g7
F1.3
saa(lp396
(S'Enforcer Cannon'
p397
NS'1'
S'F'
tp398
a(dp399
g7
I2
saa(lp400
(S'Enhanced Performance Thrusters'
p401
NS'2'
S'A'
tp402
a(dp403
g7
F2.5
saa(lp404
(g401
NS'3'
S'A'
tp405
a(dp406
g7
I5
saa(lp407
(S'Fighter Hangar'
p408
NS'5'
S'D'
tp409
a(dp410
g7
I20
saa(lp411
(g408
NS'6'
S'D'
tp412
a(dp413
g7
I40
saa(lp414
(g408
NS'7'
S'D'
tp415
a(dp416
g7
I60
saa(lp417
(S'First Class Passenger Cabin'
p418
NS'4'
S'C'
tp419
a(dp420
g7
I10
saa(lp421
(g418
NS'5'
S'C'
tp422
a(dp423
g7
I20
saa(lp424
(g418
NS'6'
S'C'
tp425
a(dp426
g7
I40
saa(lp427
(S'Fragment Cannon'
p428
NS'1'
S'E'
tp429
a(dp430
g7
I2
saa(lp431
(g428
NS'2'
S'A'
tp432
a(dp433
g7
I4
saa(lp434
(g428
NS'2'
S'D'
tp435
a(dp436
g7
I4
saa(lp437
(g428
NS'3'
S'C'
tp438
a(dp439
g7
I8
saa(lp440
(S'Frame Shift Drive'
p441
NS'2'
S'A'
tp442
a(dp443
S'optmass'
p444
I90
sS'fuelmul'
p445
F0.012
sg7
F2.5
sS'maxfuel'
p446
F0.90000000000000002
sS'fuelpower'
p447
I2
saa(lp448
(g441
NS'2'
S'B'
tp449
a(dp450
g444
I75
sg445
F0.01
sg7
I4
sg446
F0.80000000000000004
sg447
I2
saa(lp451
(g441
NS'2'
S'C'
tp452
a(dp453
g444
I60
sg445
F0.0080000000000000002
sg7
F2.5
sg446
F0.59999999999999998
sg447
I2
saa(lp454
(g441
NS'2'
S'D'
tp455
a(dp456
g444
I54
sg445
F0.01
sg7
I1
sg446
F0.59999999999999998
sg447
I2
saa(lp457
(g441
NS'2'
S'E'
tp458
a(dp459
g444
I48
sg445
F0.010999999999999999
sg7
F2.5
sg446
F0.59999999999999998
sg447
I2
saa(lp460
(g441
NS'3'
S'A'
tp461
a(dp462
g444
I150
sg445
F0.012
sg7
I5
sg446
F1.8
sg447
F2.1499999999999999
saa(lp463
(g441
NS'3'
S'B'
tp464
a(dp465
g444
I125
sg445
F0.01
sg7
I8
sg446
F1.5
sg447
F2.1499999999999999
saa(lp466
(g441
NS'3'
S'C'
tp467
a(dp468
g444
I100
sg445
F0.0080000000000000002
sg7
I5
sg446
F1.2
sg447
F2.1499999999999999
saa(lp469
(g441
NS'3'
S'D'
tp470
a(dp471
g444
I90
sg445
F0.01
sg7
I2
sg446
F1.2
sg447
F2.1499999999999999
saa(lp472
(g441
NS'3'
S'E'
tp473
a(dp474
g444
I80
sg445
F0.010999999999999999
sg7
I5
sg446
F1.2
sg447
F2.1499999999999999
saa(lp475
(g441
NS'4'
S'A'
tp476
a(dp477
g444
I525
sg445
F0.012
sg7
I10
sg446
I3
sg447
F2.2999999999999998
saa(lp478
(g441
NS'4'
S'B'
tp479
a(dp480
g444
F437.5
sg445
F0.01
sg7
I16
sg446
F2.5
sg447
F2.2999999999999998
saa(lp481
(g441
NS'4'
S'C'
tp482
a(dp483
g444
I350
sg445
F0.0080000000000000002
sg7
I10
sg446
I2
sg447
F2.2999999999999998
saa(lp484
(g441
NS'4'
S'D'
tp485
a(dp486
g444
I315
sg445
F0.01
sg7
I4
sg446
I2
sg447
F2.2999999999999998
saa(lp487
(g441
NS'4'
S'E'
tp488
a(dp489
g444
I280
sg445
F0.010999999999999999
sg7
I10
sg446
I2
sg447
F2.2999999999999998
saa(lp490
(g441
NS'5'
S'A'
tp491
a(dp492
g444
I1050
sg445
F0.012
sg7
I20
sg446
I5
sg447
F2.4500000000000002
saa(lp493
(g441
NS'5'
S'B'
tp494
a(dp495
g444
I875
sg445
F0.01
sg7
I32
sg446
F4.0999999999999996
sg447
F2.4500000000000002
saa(lp496
(g441
NS'5'
S'C'
tp497
a(dp498
g444
I700
sg445
F0.0080000000000000002
sg7
I20
sg446
F3.2999999999999998
sg447
F2.4500000000000002
saa(lp499
(g441
NS'5'
S'D'
tp500
a(dp501
g444
I630
sg445
F0.01
sg7
I8
sg446
F3.2999999999999998
sg447
F2.4500000000000002
saa(lp502
(g441
NS'5'
S'E'
tp503
a(dp504
g444
I560
sg445
F0.010999999999999999
sg7
I20
sg446
F3.2999999999999998
sg447
F2.4500000000000002
saa(lp505
(g441
NS'6'
S'A'
tp506
a(dp507
g444
I1800
sg445
F0.012
sg7
I40
sg446
I8
sg447
F2.6000000000000001
saa(lp508
(g441
NS'6'
S'B'
tp509
a(dp510
g444
I1500
sg445
F0.01
sg7
I64
sg446
F6.5999999999999996
sg447
F2.6000000000000001
saa(lp511
(g441
NS'6'
S'C'
tp512
a(dp513
g444
I1200
sg445
F0.0080000000000000002
sg7
I40
sg446
F5.2999999999999998
sg447
F2.6000000000000001
saa(lp514
(g441
NS'6'
S'D'
tp515
a(dp516
g444
I1080
sg445
F0.01
sg7
I16
sg446
F5.2999999999999998
sg447
F2.6000000000000001
saa(lp517
(g441
NS'6'
S'E'
tp518
a(dp519
g444
I960
sg445
F0.010999999999999999
sg7
I40
sg446
F5.2999999999999998
sg447
F2.6000000000000001
saa(lp520
(g441
NS'7'
S'A'
tp521
a(dp522
g444
I2700
sg445
F0.012
sg7
I80
sg446
F12.800000000000001
sg447
F2.75
saa(lp523
(g441
NS'7'
S'B'
tp524
a(dp525
g444
I2250
sg445
F0.01
sg7
I128
sg446
F10.6
sg447
F2.75
saa(lp526
(g441
NS'7'
S'C'
tp527
a(dp528
g444
I1800
sg445
F0.0080000000000000002
sg7
I80
sg446
F8.5
sg447
F2.75
saa(lp529
(g441
NS'7'
S'D'
tp530
a(dp531
g444
I1620
sg445
F0.01
sg7
I32
sg446
F8.5
sg447
F2.75
saa(lp532
(g441
NS'7'
S'E'
tp533
a(dp534
g444
I1440
sg445
F0.010999999999999999
sg7
I80
sg446
F8.5
sg447
F2.75
saa(lp535
(g441
NS'8'
S'A'
tp536
a(dp537
g444
I0
sg445
F0.012
sg7
I160
sg446
I0
sg447
F2.8999999999999999
saa(lp538
(g441
NS'8'
S'B'
tp539
a(dp540
g444
I0
sg445
F0.01
sg7
I256
sg446
I0
sg447
F2.8999999999999999
saa(lp541
(g441
NS'8'
S'C'
tp542
a(dp543
g444
I0
sg445
F0.0080000000000000002
sg7
I160
sg446
I0
sg447
F2.8999999999999999
saa(lp544
(g441
NS'8'
S'D'
tp545
a(dp546
g444
I0
sg445
F0.01
sg7
I64
sg446
I0
sg447
F2.8999999999999999
saa(lp547
(g441
NS'8'
S'E'
tp548
a(dp549
g444
I0
sg445
F0.010999999999999999
sg7
I160
sg446
I0
sg447
F2.8999999999999999
saa(lp550
(S'Frame Shift Drive Interdictor'
p551
NS'1'
S'A'
tp552
a(dp553
g7
F1.3
saa(lp554
(g551
NS'1'
S'B'
tp555
a(dp556
g7
I2
saa(lp557
(g551
NS'1'
S'C'
tp558
a(dp559
g7
F1.3
saa(lp560
(g551
NS'1'
S'D'
tp561
a(dp562
g7
F0.5
saa(lp563
(g551
NS'1'
S'E'
tp564
a(dp565
g7
F1.3
saa(lp566
(g551
NS'2'
S'A'
tp567
a(dp568
g7
F2.5
saa(lp569
(g551
NS'2'
S'B'
tp570
a(dp571
g7
I4
saa(lp572
(g551
NS'2'
S'C'
tp573
a(dp574
g7
F2.5
saa(lp575
(g551
NS'2'
S'D'
tp576
a(dp577
g7
I1
saa(lp578
(g551
NS'2'
S'E'
tp579
a(dp580
g7
F2.5
saa(lp581
(g551
NS'3'
S'A'
tp582
a(dp583
g7
I5
saa(lp584
(g551
NS'3'
S'B'
tp585
a(dp586
g7
I8
saa(lp587
(g551
NS'3'
S'C'
tp588
a(dp589
g7
I5
saa(lp590
(g551
NS'3'
S'D'
tp591
a(dp592
g7
I2
saa(lp593
(g551
NS'3'
S'E'
tp594
a(dp595
g7
I5
saa(lp596
(g551
NS'4'
S'A'
tp597
a(dp598
g7
I10
saa(lp599
(g551
NS'4'
S'B'
tp600
a(dp601
g7
I16
saa(lp602
(g551
NS'4'
S'C'
tp603
a(dp604
g7
I10
saa(lp605
(g551
NS'4'
S'D'
tp606
a(dp607
g7
I4
saa(lp608
(g551
NS'4'
S'E'
tp609
a(dp610
g7
I10
saa(lp611
(S'Frame Shift Wake Scanner'
p612
NS'0'
S'A'
tp613
a(dp614
g7
F1.3
saa(lp615
(g612
NS'0'
S'B'
tp616
a(dp617
g7
F1.3
saa(lp618
(g612
NS'0'
S'C'
tp619
a(dp620
g7
F1.3
saa(lp621
(g612
NS'0'
S'D'
tp622
a(dp623
g7
F1.3
saa(lp624
(g612
NS'0'
S'E'
tp625
a(dp626
g7
F1.3
saa(lp627
(S'Fuel Scoop'
p628
NS'1'
S'A'
tp629
a(dp630
g7
I0
saa(lp631
(g628
NS'1'
S'B'
tp632
a(dp633
g7
I0
saa(lp634
(g628
NS'1'
S'C'
tp635
a(dp636
g7
I0
saa(lp637
(g628
NS'1'
S'D'
tp638
a(dp639
g7
I0
saa(lp640
(g628
NS'1'
S'E'
tp641
a(dp642
g7
I0
saa(lp643
(g628
NS'2'
S'A'
tp644
a(dp645
g7
I0
saa(lp646
(g628
NS'2'
S'B'
tp647
a(dp648
g7
I0
saa(lp649
(g628
NS'2'
S'C'
tp650
a(dp651
g7
I0
saa(lp652
(g628
NS'2'
S'D'
tp653
a(dp654
g7
I0
saa(lp655
(g628
NS'2'
S'E'
tp656
a(dp657
g7
I0
saa(lp658
(g628
NS'3'
S'A'
tp659
a(dp660
g7
I0
saa(lp661
(g628
NS'3'
S'B'
tp662
a(dp663
g7
I0
saa(lp664
(g628
NS'3'
S'C'
tp665
a(dp666
g7
I0
saa(lp667
(g628
NS'3'
S'D'
tp668
a(dp669
g7
I0
saa(lp670
(g628
NS'3'
S'E'
tp671
a(dp672
g7
I0
saa(lp673
(g628
NS'4'
S'A'
tp674
a(dp675
g7
I0
saa(lp676
(g628
NS'4'
S'B'
tp677
a(dp678
g7
I0
saa(lp679
(g628
NS'4'
S'C'
tp680
a(dp681
g7
I0
saa(lp682
(g628
NS'4'
S'D'
tp683
a(dp684
g7
I0
saa(lp685
(g628
NS'4'
S'E'
tp686
a(dp687
g7
I0
saa(lp688
(g628
NS'5'
S'A'
tp689
a(dp690
g7
I0
saa(lp691
(g628
NS'5'
S'B'
tp692
a(dp693
g7
I0
saa(lp694
(g628
NS'5'
S'C'
tp695
a(dp696
g7
I0
saa(lp697
(g628
NS'5'
S'D'
tp698
a(dp699
g7
I0
saa(lp700
(g628
NS'5'
S'E'
tp701
a(dp702
g7
I0
saa(lp703
(g628
NS'6'
S'A'
tp704
a(dp705
g7
I0
saa(lp706
(g628
NS'6'
S'B'
tp707
a(dp708
g7
I0
saa(lp709
(g628
NS'6'
S'C'
tp710
a(dp711
g7
I0
saa(lp712
(g628
NS'6'
S'D'
tp713
a(dp714
g7
I0
saa(lp715
(g628
NS'6'
S'E'
tp716
a(dp717
g7
I0
saa(lp718
(g628
NS'7'
S'A'
tp719
a(dp720
g7
I0
saa(lp721
(g628
NS'7'
S'B'
tp722
a(dp723
g7
I0
saa(lp724
(g628
NS'7'
S'C'
tp725
a(dp726
g7
I0
saa(lp727
(g628
NS'7'
S'D'
tp728
a(dp729
g7
I0
saa(lp730
(g628
NS'7'
S'E'
tp731
a(dp732
g7
I0
saa(lp733
(g628
NS'8'
S'A'
tp734
a(dp735
g7
I0
saa(lp736
(g628
NS'8'
S'B'
tp737
a(dp738
g7
I0
saa(lp739
(g628
NS'8'
S'C'
tp740
a(dp741
g7
I0
saa(lp742
(g628
NS'8'
S'D'
tp743
a(dp744
g7
I0
saa(lp745
(g628
NS'8'
S'E'
tp746
a(dp747
g7
I0
saa(lp748
(S'Fuel Tank'
p749
NS'1'
S'C'
tp750
a(dp751
g7
I0
saa(lp752
(g749
NS'2'
S'C'
tp753
a(dp754
g7
I0
saa(lp755
(g749
NS'3'
S'C'
tp756
a(dp757
g7
I0
saa(lp758
(g749
NS'4'
S'C'
tp759
a(dp760
g7
I0
saa(lp761
(g749
NS'5'
S'C'
tp762
a(dp763
g7
I0
saa(lp764
(g749
NS'6'
S'C'
tp765
a(dp766
g7
I0
saa(lp767
(g749
NS'7'
S'C'
tp768
a(dp769
g7
I0
saa(lp770
(g749
NS'8'
S'C'
tp771
a(dp772
g7
I0
saa(lp773
(S'Fuel Transfer Limpet Controller'
p774
NS'1'
S'A'
tp775
a(dp776
g7
F1.3
saa(lp777
(g774
NS'1'
S'B'
tp778
a(dp779
g7
I2
saa(lp780
(g774
NS'1'
S'C'
tp781
a(dp782
g7
F1.3
saa(lp783
(g774
NS'1'
S'D'
tp784
a(dp785
g7
F0.5
saa(lp786
(g774
NS'1'
S'E'
tp787
a(dp788
g7
F1.3
saa(lp789
(g774
NS'3'
S'A'
tp790
a(dp791
g7
I5
saa(lp792
(g774
NS'3'
S'B'
tp793
a(dp794
g7
I8
saa(lp795
(g774
NS'3'
S'C'
tp796
a(dp797
g7
I5
saa(lp798
(g774
NS'3'
S'D'
tp799
a(dp800
g7
I2
saa(lp801
(g774
NS'3'
S'E'
tp802
a(dp803
g7
I5
saa(lp804
(g774
NS'5'
S'A'
tp805
a(dp806
g7
I20
saa(lp807
(g774
NS'5'
S'B'
tp808
a(dp809
g7
I32
saa(lp810
(g774
NS'5'
S'C'
tp811
a(dp812
g7
I20
saa(lp813
(g774
NS'5'
S'D'
tp814
a(dp815
g7
I8
saa(lp816
(g774
NS'5'
S'E'
tp817
a(dp818
g7
I20
saa(lp819
(g774
NS'7'
S'A'
tp820
a(dp821
g7
I80
saa(lp822
(g774
NS'7'
S'B'
tp823
a(dp824
g7
I128
saa(lp825
(g774
NS'7'
S'C'
tp826
a(dp827
g7
I80
saa(lp828
(g774
NS'7'
S'D'
tp829
a(dp830
g7
I32
saa(lp831
(g774
NS'7'
S'E'
tp832
a(dp833
g7
I80
saa(lp834
(S'Hatch Breaker Limpet Controller'
p835
NS'1'
S'A'
tp836
a(dp837
g7
F1.3
saa(lp838
(g835
NS'1'
S'B'
tp839
a(dp840
g7
I2
saa(lp841
(g835
NS'1'
S'C'
tp842
a(dp843
g7
F1.3
saa(lp844
(g835
NS'1'
S'D'
tp845
a(dp846
g7
F0.5
saa(lp847
(g835
NS'1'
S'E'
tp848
a(dp849
g7
F1.3
saa(lp850
(g835
NS'3'
S'A'
tp851
a(dp852
g7
I5
saa(lp853
(g835
NS'3'
S'B'
tp854
a(dp855
g7
I8
saa(lp856
(g835
NS'3'
S'C'
tp857
a(dp858
g7
I5
saa(lp859
(g835
NS'3'
S'D'
tp860
a(dp861
g7
I2
saa(lp862
(g835
NS'3'
S'E'
tp863
a(dp864
g7
I5
saa(lp865
(g835
NS'5'
S'A'
tp866
a(dp867
g7
I20
saa(lp868
(g835
NS'5'
S'B'
tp869
a(dp870
g7
I32
saa(lp871
(g835
NS'5'
S'C'
tp872
a(dp873
g7
I20
saa(lp874
(g835
NS'5'
S'D'
tp875
a(dp876
g7
I8
saa(lp877
(g835
NS'5'
S'E'
tp878
a(dp879
g7
I20
saa(lp880
(g835
NS'7'
S'A'
tp881
a(dp882
g7
I90
saa(lp883
(g835
NS'7'
S'B'
tp884
a(dp885
g7
I128
saa(lp886
(g835
NS'7'
S'C'
tp887
a(dp888
g7
I80
saa(lp889
(g835
NS'7'
S'D'
tp890
a(dp891
g7
I32
saa(lp892
(g835
NS'7'
S'E'
tp893
a(dp894
g7
I80
saa(lp895
(S'Heat Sink Launcher'
p896
NS'0'
S'I'
tp897
a(dp898
g7
F1.3
saa(lp899
(S'Hull Reinforcement Package'
p900
NS'1'
S'D'
tp901
a(dp902
g7
I1
saa(lp903
(g900
NS'1'
S'E'
tp904
a(dp905
g7
I2
saa(lp906
(g900
NS'2'
S'D'
tp907
a(dp908
g7
I2
saa(lp909
(g900
NS'2'
S'E'
tp910
a(dp911
g7
I4
saa(lp912
(g900
NS'3'
S'D'
tp913
a(dp914
g7
I4
saa(lp915
(g900
NS'3'
S'E'
tp916
a(dp917
g7
I8
saa(lp918
(g900
NS'4'
S'D'
tp919
a(dp920
g7
I8
saa(lp921
(g900
NS'4'
S'E'
tp922
a(dp923
g7
I16
saa(lp924
(g900
NS'5'
S'D'
tp925
a(dp926
g7
I16
saa(lp927
(g900
NS'5'
S'E'
tp928
a(dp929
g7
I32
saa(lp930
(S'Imperial Hammer Rail Gun'
p931
NS'2'
S'B'
tp932
a(dp933
g7
I4
saa(lp934
(S'Intermediate Discovery Scanner'
p935
NS'1'
S'D'
tp936
a(dp937
g7
I2
saa(lp938
(S'Kill Warrant Scanner'
p939
NS'0'
S'A'
tp940
a(dp941
g7
F1.3
saa(lp942
(g939
NS'0'
S'B'
tp943
a(dp944
g7
F1.3
saa(lp945
(g939
NS'0'
S'C'
tp946
a(dp947
g7
F1.3
saa(lp948
(g939
NS'0'
S'D'
tp949
a(dp950
g7
F1.3
saa(lp951
(g939
NS'0'
S'E'
tp952
a(dp953
g7
F1.3
saa(lp954
(S'Life Support'
p955
NS'1'
S'A'
tp956
a(dp957
g7
F1.3
saa(lp958
(g955
NS'1'
S'B'
tp959
a(dp960
g7
I2
saa(lp961
(g955
NS'1'
S'C'
tp962
a(dp963
g7
F1.3
saa(lp964
(g955
NS'1'
S'D'
tp965
a(dp966
g7
F0.5
saa(lp967
(g955
NS'1'
S'E'
tp968
a(dp969
g7
F1.3
saa(lp970
(g955
NS'2'
S'A'
tp971
a(dp972
g7
F2.5
saa(lp973
(g955
NS'2'
S'B'
tp974
a(dp975
g7
I4
saa(lp976
(g955
NS'2'
S'C'
tp977
a(dp978
g7
F2.5
saa(lp979
(g955
NS'2'
S'D'
tp980
a(dp981
g7
I1
saa(lp982
(g955
NS'2'
S'E'
tp983
a(dp984
g7
F2.5
saa(lp985
(g955
NS'3'
S'A'
tp986
a(dp987
g7
I5
saa(lp988
(g955
NS'3'
S'B'
tp989
a(dp990
g7
I8
saa(lp991
(g955
NS'3'
S'C'
tp992
a(dp993
g7
I5
saa(lp994
(g955
NS'3'
S'D'
tp995
a(dp996
g7
I2
saa(lp997
(g955
NS'3'
S'E'
tp998
a(dp999
g7
I5
saa(lp1000
(g955
NS'4'
S'A'
tp1001
a(dp1002
g7
I10
saa(lp1003
(g955
NS'4'
S'B'
tp1004
a(dp1005
g7
I16
saa(lp1006
(g955
NS'4'
S'C'
tp1007
a(dp1008
g7
I10
saa(lp1009
(g955
NS'4'
S'D'
tp1010
a(dp1011
g7
I4
saa(lp1012
(g955
NS'4'
S'E'
tp1013
a(dp1014
g7
I10
saa(lp1015
(g955
NS'5'
S'A'
tp1016
a(dp1017
g7
I20
saa(lp1018
(g955
NS'5'
S'B'
tp1019
a(dp1020
g7
I32
saa(lp1021
(g955
NS'5'
S'C'
tp1022
a(dp1023
g7
I20
saa(lp1024
(g955
NS'5'
S'D'
tp1025
a(dp1026
g7
I8
saa(lp1027
(g955
NS'5'
S'E'
tp1028
a(dp1029
g7
I20
saa(lp1030
(g955
NS'6'
S'A'
tp1031
a(dp1032
g7
I40
saa(lp1033
(g955
NS'6'
S'B'
tp1034
a(dp1035
g7
I64
saa(lp1036
(g955
NS'6'
S'C'
tp1037
a(dp1038
g7
I40
saa(lp1039
(g955
NS'6'
S'D'
tp1040
a(dp1041
g7
I16
saa(lp1042
(g955
NS'6'
S'E'
tp1043
a(dp1044
g7
I40
saa(lp1045
(g955
NS'7'
S'A'
tp1046
a(dp1047
g7
I80
saa(lp1048
(g955
NS'7'
S'B'
tp1049
a(dp1050
g7
I128
saa(lp1051
(g955
NS'7'
S'C'
tp1052
a(dp1053
g7
I80
saa(lp1054
(g955
NS'7'
S'D'
tp1055
a(dp1056
g7
I32
saa(lp1057
(g955
NS'7'
S'E'
tp1058
a(dp1059
g7
I80
saa(lp1060
(g955
NS'8'
S'A'
tp1061
a(dp1062
g7
I160
saa(lp1063
(g955
NS'8'
S'B'
tp1064
a(dp1065
g7
I256
saa(lp1066
(g955
NS'8'
S'C'
tp1067
a(dp1068
g7
I160
saa(lp1069
(g955
NS'8'
S'D'
tp1070
a(dp1071
g7
I64
saa(lp1072
(g955
NS'8'
S'E'
tp1073
a(dp1074
g7
I160
saa(lp1075
(S'Lightweight Alloy'
p1076
S'Adder'
p1077
S'1'
S'I'
tp1078
a(dp1079
g7
I0
saa(lp1080
(g1076
S'Anaconda'
p1081
S'1'
S'I'
tp1082
a(dp1083
g7
I0
saa(lp1084
(g1076
S'Asp Explorer'
p1085
S'1'
S'I'
tp1086
a(dp1087
g7
I0
saa(lp1088
(g1076
S'Asp Scout'
p1089
S'1'
S'I'
tp1090
a(dp1091
g7
I0
saa(lp1092
(g1076
S'Beluga Liner'
p1093
S'1'
S'I'
tp1094
a(dp1095
g7
I0
saa(lp1096
(g1076
S'Cobra MkIII'
p1097
S'1'
S'I'
tp1098
a(dp1099
g7
I0
saa(lp1100
(g1076
S'Cobra MkIV'
p1101
S'1'
S'I'
tp1102
a(dp1103
g7
I0
saa(lp1104
(g1076
S'Diamondback Explorer'
p1105
S'1'
S'I'
tp1106
a(dp1107
g7
I0
saa(lp1108
(g1076
S'Diamondback Scout'
p1109
S'1'
S'I'
tp1110
a(dp1111
g7
I0
saa(lp1112
(g1076
S'Dolphin'
p1113
S'1'
S'I'
tp1114
a(dp1115
g7
I0
saa(lp1116
(g1076
S'Eagle'
p1117
S'1'
S'I'
tp1118
a(dp1119
g7
I0
saa(lp1120
(g1076
S'Federal Assault Ship'
p1121
S'1'
S'I'
tp1122
a(dp1123
g7
I0
saa(lp1124
(g1076
S'Federal Corvette'
p1125
S'1'
S'I'
tp1126
a(dp1127
g7
I0
saa(lp1128
(g1076
S'Federal Dropship'
p1129
S'1'
S'I'
tp1130
a(dp1131
g7
I0
saa(lp1132
(g1076
S'Federal Gunship'
p1133
S'1'
S'I'
tp1134
a(dp1135
g7
I0
saa(lp1136
(g1076
S'Fer-de-Lance'
p1137
S'1'
S'I'
tp1138
a(dp1139
g7
I0
saa(lp1140
(g1076
S'Hauler'
p1141
S'1'
S'I'
tp1142
a(dp1143
g7
I0
saa(lp1144
(g1076
S'Imperial Clipper'
p1145
S'1'
S'I'
tp1146
a(dp1147
g7
I0
saa(lp1148
(g1076
S'Imperial Courier'
p1149
S'1'
S'I'
tp1150
a(dp1151
g7
I0
saa(lp1152
(g1076
S'Imperial Cutter'
p1153
S'1'
S'I'
tp1154
a(dp1155
g7
I0
saa(lp1156
(g1076
S'Imperial Eagle'
p1157
S'1'
S'I'
tp1158
a(dp1159
g7
I0
saa(lp1160
(g1076
S'Keelback'
p1161
S'1'
S'I'
tp1162
a(dp1163
g7
I0
saa(lp1164
(g1076
S'Orca'
p1165
S'1'
S'I'
tp1166
a(dp1167
g7
I0
saa(lp1168
(g1076
S'Python'
p1169
S'1'
S'I'
tp1170
a(dp1171
g7
I0
saa(lp1172
(g1076
S'Sidewinder'
p1173
S'1'
S'I'
tp1174
a(dp1175
g7
I0
saa(lp1176
(g1076
S'Type-6 Transporter'
p1177
S'1'
S'I'
tp1178
a(dp1179
g7
I0
saa(lp1180
(g1076
S'Type-7 Transporter'
p1181
S'1'
S'I'
tp1182
a(dp1183
g7
I0
saa(lp1184
(g1076
S'Type-9 Heavy'
p1185
S'1'
S'I'
tp1186
a(dp1187
g7
I0
saa(lp1188
(g1076
S'Viper MkIII'
p1189
S'1'
S'I'
tp1190
a(dp1191
g7
I0
saa(lp1192
(g1076
S'Viper MkIV'
p1193
S'1'
S'I'
tp1194
a(dp1195
g7
I0
saa(lp1196
(g1076
S'Vulture'
p1197
S'1'
S'I'
tp1198
a(dp1199
g7
I0
saa(lp1200
(S'Luxury Class Passenger Cabin'
p1201
NS'5'
S'B'
tp1202
a(dp1203
g7
I20
saa(lp1204
(g1201
NS'6'
S'B'
tp1205
a(dp1206
g7
I40
saa(lp1207
(S'Military Grade Composite'
p1208
g1077
S'1'
S'I'
tp1209
a(dp1210
g7
I5
saa(lp1211
(g1208
g1081
S'1'
S'I'
tp1212
a(dp1213
g7
I60
saa(lp1214
(g1208
g1085
S'1'
S'I'
tp1215
a(dp1216
g7
I42
saa(lp1217
(g1208
g1089
S'1'
S'I'
tp1218
a(dp1219
g7
I42
saa(lp1220
(g1208
g1093
S'1'
S'I'
tp1221
a(dp1222
g7
I165
saa(lp1223
(g1208
g1097
S'1'
S'I'
tp1224
a(dp1225
g7
I27
saa(lp1226
(g1208
g1101
S'1'
S'I'
tp1227
a(dp1228
g7
I27
saa(lp1229
(g1208
g1105
S'1'
S'I'
tp1230
a(dp1231
g7
I47
saa(lp1232
(g1208
g1109
S'1'
S'I'
tp1233
a(dp1234
g7
I26
saa(lp1235
(g1208
g1113
S'1'
S'I'
tp1236
a(dp1237
g7
I63
saa(lp1238
(g1208
g1117
S'1'
S'I'
tp1239
a(dp1240
g7
I8
saa(lp1241
(g1208
g1121
S'1'
S'I'
tp1242
a(dp1243
g7
I87
saa(lp1244
(g1208
g1125
S'1'
S'I'
tp1245
a(dp1246
g7
I60
saa(lp1247
(g1208
g1129
S'1'
S'I'
tp1248
a(dp1249
g7
I87
saa(lp1250
(g1208
g1133
S'1'
S'I'
tp1251
a(dp1252
g7
I87
saa(lp1253
(g1208
g1137
S'1'
S'I'
tp1254
a(dp1255
g7
I38
saa(lp1256
(g1208
g1141
S'1'
S'I'
tp1257
a(dp1258
g7
I2
saa(lp1259
(g1208
g1145
S'1'
S'I'
tp1260
a(dp1261
g7
I60
saa(lp1262
(g1208
g1149
S'1'
S'I'
tp1263
a(dp1264
g7
I8
saa(lp1265
(g1208
g1153
S'1'
S'I'
tp1266
a(dp1267
g7
I60
saa(lp1268
(g1208
g1157
S'1'
S'I'
tp1269
a(dp1270
g7
I8
saa(lp1271
(g1208
g1161
S'1'
S'I'
tp1272
a(dp1273
g7
I23
saa(lp1274
(g1208
g1165
S'1'
S'I'
tp1275
a(dp1276
g7
I87
saa(lp1277
(g1208
g1169
S'1'
S'I'
tp1278
a(dp1279
g7
I53
saa(lp1280
(g1208
g1173
S'1'
S'I'
tp1281
a(dp1282
g7
I4
saa(lp1283
(g1208
g1177
S'1'
S'I'
tp1284
a(dp1285
g7
I23
saa(lp1286
(g1208
g1181
S'1'
S'I'
tp1287
a(dp1288
g7
I63
saa(lp1289
(g1208
g1185
S'1'
S'I'
tp1290
a(dp1291
g7
I150
saa(lp1292
(g1208
g1189
S'1'
S'I'
tp1293
a(dp1294
g7
I9
saa(lp1295
(g1208
g1193
S'1'
S'I'
tp1296
a(dp1297
g7
I9
saa(lp1298
(g1208
g1197
S'1'
S'I'
tp1299
a(dp1300
g7
I35
saa(lp1301
(S'Mine Launcher'
p1302
NS'1'
S'I'
tp1303
a(dp1304
g7
I2
saa(lp1305
(g1302
NS'2'
S'I'
tp1306
a(dp1307
g7
I4
saa(lp1308
(S'Mining Lance Beam Laser'
p1309
NS'1'
S'D'
tp1310
a(dp1311
g7
I2
saa(lp1312
(S'Mining Laser'
p1313
NS'1'
S'D'
tp1314
a(dp1315
g7
I2
saa(lp1316
(g1313
NS'2'
S'D'
tp1317
a(dp1318
g7
I2
saa(lp1319
(S'Mirrored Surface Composite'
p1320
g1077
S'1'
S'I'
tp1321
a(dp1322
g7
I5
saa(lp1323
(g1320
g1081
S'1'
S'I'
tp1324
a(dp1325
g7
I60
saa(lp1326
(g1320
g1085
S'1'
S'I'
tp1327
a(dp1328
g7
I42
saa(lp1329
(g1320
g1089
S'1'
S'I'
tp1330
a(dp1331
g7
I42
saa(lp1332
(g1320
g1093
S'1'
S'I'
tp1333
a(dp1334
g7
I165
saa(lp1335
(g1320
g1097
S'1'
S'I'
tp1336
a(dp1337
g7
I27
saa(lp1338
(g1320
g1101
S'1'
S'I'
tp1339
a(dp1340
g7
I27
saa(lp1341
(g1320
g1105
S'1'
S'I'
tp1342
a(dp1343
g7
I26
saa(lp1344
(g1320
g1109
S'1'
S'I'
tp1345
a(dp1346
g7
I26
saa(lp1347
(g1320
g1113
S'1'
S'I'
tp1348
a(dp1349
g7
I63
saa(lp1350
(g1320
g1117
S'1'
S'I'
tp1351
a(dp1352
g7
I8
saa(lp1353
(g1320
g1121
S'1'
S'I'
tp1354
a(dp1355
g7
I87
saa(lp1356
(g1320
g1125
S'1'
S'I'
tp1357
a(dp1358
g7
I60
saa(lp1359
(g1320
g1129
S'1'
S'I'
tp1360
a(dp1361
g7
I87
saa(lp1362
(g1320
g1133
S'1'
S'I'
tp1363
a(dp1364
g7
I87
saa(lp1365
(g1320
g1137
S'1'
S'I'
tp1366
a(dp1367
g7
I38
saa(lp1368
(g1320
g1141
S'1'
S'I'
tp1369
a(dp1370
g7
I2
saa(lp1371
(g1320
g1145
S'1'
S'I'
tp1372
a(dp1373
g7
I60
saa(lp1374
(g1320
g1149
S'1'
S'I'
tp1375
a(dp1376
g7
I8
saa(lp1377
(g1320
g1153
S'1'
S'I'
tp1378
a(dp1379
g7
I60
saa(lp1380
(g1320
g1157
S'1'
S'I'
tp1381
a(dp1382
g7
I8
saa(lp1383
(g1320
g1161
S'1'
S'I'
tp1384
a(dp1385
g7
I23
saa(lp1386
(g1320
g1165
S'1'
S'I'
tp1387
a(dp1388
g7
I87
saa(lp1389
(g1320
g1169
S'1'
S'I'
tp1390
a(dp1391
g7
I53
saa(lp1392
(g1320
g1173
S'1'
S'I'
tp1393
a(dp1394
g7
I4
saa(lp1395
(g1320
g1177
S'1'
S'I'
tp1396
a(dp1397
g7
I23
saa(lp1398
(g1320
g1181
S'1'
S'I'
tp1399
a(dp1400
g7
I63
saa(lp1401
(g1320
g1185
S'1'
S'I'
tp1402
a(dp1403
g7
I150
saa(lp1404
(g1320
g1189
S'1'
S'I'
tp1405
a(dp1406
g7
I9
saa(lp1407
(g1320
g1193
S'1'
S'I'
tp1408
a(dp1409
g7
I9
saa(lp1410
(g1320
g1197
S'1'
S'I'
tp1411
a(dp1412
g7
I35
saa(lp1413
(S'Missile Rack'
p1414
NS'1'
S'B'
tp1415
a(dp1416
g7
I2
saa(lp1417
(g1414
NS'2'
S'B'
tp1418
a(dp1419
g7
I4
saa(lp1420
(S'Module Reinforcement Package'
p1421
NS'1'
S'D'
tp1422
a(dp1423
g7
I1
saa(lp1424
(g1421
NS'1'
S'E'
tp1425
a(dp1426
g7
I2
saa(lp1427
(g1421
NS'2'
S'D'
tp1428
a(dp1429
g7
I2
saa(lp1430
(g1421
NS'2'
S'E'
tp1431
a(dp1432
g7
I4
saa(lp1433
(g1421
NS'3'
S'D'
tp1434
a(dp1435
g7
I4
saa(lp1436
(g1421
NS'3'
S'E'
tp1437
a(dp1438
g7
I8
saa(lp1439
(g1421
NS'4'
S'D'
tp1440
a(dp1441
g7
I8
saa(lp1442
(g1421
NS'4'
S'E'
tp1443
a(dp1444
g7
I16
saa(lp1445
(g1421
NS'5'
S'D'
tp1446
a(dp1447
g7
I16
saa(lp1448
(g1421
NS'5'
S'E'
tp1449
a(dp1450
g7
I32
saa(lp1451
(S'Multi-Cannon'
p1452
NS'1'
S'F'
tp1453
a(dp1454
g7
I2
saa(lp1455
(g1452
NS'1'
S'G'
tp1456
a(dp1457
g7
I2
saa(lp1458
(g1452
NS'2'
S'E'
tp1459
a(dp1460
g7
I4
saa(lp1461
(g1452
NS'2'
S'F'
tp1462
a(dp1463
g7
I4
saa(lp1464
(g1452
NS'3'
S'C'
tp1465
a(dp1466
g7
I8
saa(lp1467
(g1452
NS'4'
S'A'
tp1468
a(dp1469
g7
I16
saa(lp1470
(S'Pacifier Frag-Cannon'
p1471
NS'3'
S'C'
tp1472
a(dp1473
g7
I8
saa(lp1474
(S'Pack-Hound Missile Rack'
p1475
NS'2'
S'B'
tp1476
a(dp1477
g7
I4
saa(lp1478
(S'Planetary Approach Suite'
p1479
NS'1'
S'I'
tp1480
a(dp1481
g7
I0
saa(lp1482
(S'Planetary Vehicle Hangar'
p1483
NS'2'
S'G'
tp1484
a(dp1485
g7
I6
saa(lp1486
(g1483
NS'2'
S'H'
tp1487
a(dp1488
g7
I12
saa(lp1489
(g1483
NS'4'
S'G'
tp1490
a(dp1491
g7
I10
saa(lp1492
(g1483
NS'4'
S'H'
tp1493
a(dp1494
g7
I20
saa(lp1495
(g1483
NS'6'
S'G'
tp1496
a(dp1497
g7
I17
saa(lp1498
(g1483
NS'6'
S'H'
tp1499
a(dp1500
g7
I34
saa(lp1501
(S'Plasma Accelerator'
p1502
NS'2'
S'C'
tp1503
a(dp1504
g7
I4
saa(lp1505
(g1502
NS'3'
S'B'
tp1506
a(dp1507
g7
I8
saa(lp1508
(g1502
NS'4'
S'A'
tp1509
a(dp1510
g7
I16
saa(lp1511
(S'Point Defence'
p1512
NS'0'
S'I'
tp1513
a(dp1514
g7
F0.5
saa(lp1515
(S'Power Distributor'
p1516
NS'1'
S'A'
tp1517
a(dp1518
g7
F1.3
saa(lp1519
(g1516
NS'1'
S'B'
tp1520
a(dp1521
g7
I2
saa(lp1522
(g1516
NS'1'
S'C'
tp1523
a(dp1524
g7
F1.3
saa(lp1525
(g1516
NS'1'
S'D'
tp1526
a(dp1527
g7
F0.5
saa(lp1528
(g1516
NS'1'
S'E'
tp1529
a(dp1530
g7
F1.3
saa(lp1531
(g1516
NS'2'
S'A'
tp1532
a(dp1533
g7
F2.5
saa(lp1534
(g1516
NS'2'
S'B'
tp1535
a(dp1536
g7
I4
saa(lp1537
(g1516
NS'2'
S'C'
tp1538
a(dp1539
g7
F2.5
saa(lp1540
(g1516
NS'2'
S'D'
tp1541
a(dp1542
g7
I1
saa(lp1543
(g1516
NS'2'
S'E'
tp1544
a(dp1545
g7
F2.5
saa(lp1546
(g1516
NS'3'
S'A'
tp1547
a(dp1548
g7
I5
saa(lp1549
(g1516
NS'3'
S'B'
tp1550
a(dp1551
g7
I8
saa(lp1552
(g1516
NS'3'
S'C'
tp1553
a(dp1554
g7
I5
saa(lp1555
(g1516
NS'3'
S'D'
tp1556
a(dp1557
g7
I2
saa(lp1558
(g1516
NS'3'
S'E'
tp1559
a(dp1560
g7
I5
saa(lp1561
(g1516
NS'4'
S'A'
tp1562
a(dp1563
g7
I10
saa(lp1564
(g1516
NS'4'
S'B'
tp1565
a(dp1566
g7
I16
saa(lp1567
(g1516
NS'4'
S'C'
tp1568
a(dp1569
g7
I10
saa(lp1570
(g1516
NS'4'
S'D'
tp1571
a(dp1572
g7
I4
saa(lp1573
(g1516
NS'4'
S'E'
tp1574
a(dp1575
g7
I10
saa(lp1576
(g1516
NS'5'
S'A'
tp1577
a(dp1578
g7
I20
saa(lp1579
(g1516
NS'5'
S'B'
tp1580
a(dp1581
g7
I32
saa(lp1582
(g1516
NS'5'
S'C'
tp1583
a(dp1584
g7
I20
saa(lp1585
(g1516
NS'5'
S'D'
tp1586
a(dp1587
g7
I8
saa(lp1588
(g1516
NS'5'
S'E'
tp1589
a(dp1590
g7
I20
saa(lp1591
(g1516
NS'6'
S'A'
tp1592
a(dp1593
g7
I40
saa(lp1594
(g1516
NS'6'
S'B'
tp1595
a(dp1596
g7
I64
saa(lp1597
(g1516
NS'6'
S'C'
tp1598
a(dp1599
g7
I40
saa(lp1600
(g1516
NS'6'
S'D'
tp1601
a(dp1602
g7
I16
saa(lp1603
(g1516
NS'6'
S'E'
tp1604
a(dp1605
g7
I40
saa(lp1606
(g1516
NS'7'
S'A'
tp1607
a(dp1608
g7
I80
saa(lp1609
(g1516
NS'7'
S'B'
tp1610
a(dp1611
g7
I128
saa(lp1612
(g1516
NS'7'
S'C'
tp1613
a(dp1614
g7
I80
saa(lp1615
(g1516
NS'7'
S'D'
tp1616
a(dp1617
g7
I32
saa(lp1618
(g1516
NS'7'
S'E'
tp1619
a(dp1620
g7
I80
saa(lp1621
(g1516
NS'8'
S'A'
tp1622
a(dp1623
g7
I160
saa(lp1624
(g1516
NS'8'
S'B'
tp1625
a(dp1626
g7
I256
saa(lp1627
(g1516
NS'8'
S'C'
tp1628
a(dp1629
g7
I160
saa(lp1630
(g1516
NS'8'
S'D'
tp1631
a(dp1632
g7
I64
saa(lp1633
(g1516
NS'8'
S'E'
tp1634
a(dp1635
g7
I160
saa(lp1636
(S'Power Plant'
p1637
NS'2'
S'A'
tp1638
a(dp1639
g7
F1.3
saa(lp1640
(g1637
NS'2'
S'B'
tp1641
a(dp1642
g7
I2
saa(lp1643
(g1637
NS'2'
S'C'
tp1644
a(dp1645
g7
F1.3
saa(lp1646
(g1637
NS'2'
S'D'
tp1647
a(dp1648
g7
I1
saa(lp1649
(g1637
NS'2'
S'E'
tp1650
a(dp1651
g7
F2.5
saa(lp1652
(g1637
NS'3'
S'A'
tp1653
a(dp1654
g7
F2.5
saa(lp1655
(g1637
NS'3'
S'B'
tp1656
a(dp1657
g7
I4
saa(lp1658
(g1637
NS'3'
S'C'
tp1659
a(dp1660
g7
F2.5
saa(lp1661
(g1637
NS'3'
S'D'
tp1662
a(dp1663
g7
I2
saa(lp1664
(g1637
NS'3'
S'E'
tp1665
a(dp1666
g7
I5
saa(lp1667
(g1637
NS'4'
S'A'
tp1668
a(dp1669
g7
I5
saa(lp1670
(g1637
NS'4'
S'B'
tp1671
a(dp1672
g7
I8
saa(lp1673
(g1637
NS'4'
S'C'
tp1674
a(dp1675
g7
I5
saa(lp1676
(g1637
NS'4'
S'D'
tp1677
a(dp1678
g7
I4
saa(lp1679
(g1637
NS'4'
S'E'
tp1680
a(dp1681
g7
I10
saa(lp1682
(g1637
NS'5'
S'A'
tp1683
a(dp1684
g7
I10
saa(lp1685
(g1637
NS'5'
S'B'
tp1686
a(dp1687
g7
I16
saa(lp1688
(g1637
NS'5'
S'C'
tp1689
a(dp1690
g7
I10
saa(lp1691
(g1637
NS'5'
S'D'
tp1692
a(dp1693
g7
I8
saa(lp1694
(g1637
NS'5'
S'E'
tp1695
a(dp1696
g7
I20
saa(lp1697
(g1637
NS'6'
S'A'
tp1698
a(dp1699
g7
I20
saa(lp1700
(g1637
NS'6'
S'B'
tp1701
a(dp1702
g7
I32
saa(lp1703
(g1637
NS'6'
S'C'
tp1704
a(dp1705
g7
I20
saa(lp1706
(g1637
NS'6'
S'D'
tp1707
a(dp1708
g7
I16
saa(lp1709
(g1637
NS'6'
S'E'
tp1710
a(dp1711
g7
I40
saa(lp1712
(g1637
NS'7'
S'A'
tp1713
a(dp1714
g7
I40
saa(lp1715
(g1637
NS'7'
S'B'
tp1716
a(dp1717
g7
I64
saa(lp1718
(g1637
NS'7'
S'C'
tp1719
a(dp1720
g7
I40
saa(lp1721
(g1637
NS'7'
S'D'
tp1722
a(dp1723
g7
I32
saa(lp1724
(g1637
NS'7'
S'E'
tp1725
a(dp1726
g7
I80
saa(lp1727
(g1637
NS'8'
S'A'
tp1728
a(dp1729
g7
I80
saa(lp1730
(g1637
NS'8'
S'B'
tp1731
a(dp1732
g7
I128
saa(lp1733
(g1637
NS'8'
S'C'
tp1734
a(dp1735
g7
I80
saa(lp1736
(g1637
NS'8'
S'D'
tp1737
a(dp1738
g7
I64
saa(lp1739
(g1637
NS'8'
S'E'
tp1740
a(dp1741
g7
I160
saa(lp1742
(S'Prismatic Shield Generator'
p1743
NS'1'
S'A'
tp1744
a(dp1745
g7
F2.5
saa(lp1746
(g1743
NS'2'
S'A'
tp1747
a(dp1748
g7
I5
saa(lp1749
(g1743
NS'3'
S'A'
tp1750
a(dp1751
g7
I10
saa(lp1752
(g1743
NS'4'
S'A'
tp1753
a(dp1754
g7
I20
saa(lp1755
(g1743
NS'5'
S'A'
tp1756
a(dp1757
g7
I40
saa(lp1758
(g1743
NS'6'
S'A'
tp1759
a(dp1760
g7
I80
saa(lp1761
(g1743
NS'7'
S'A'
tp1762
a(dp1763
g7
I160
saa(lp1764
(g1743
NS'8'
S'A'
tp1765
a(dp1766
g7
I320
saa(lp1767
(S'Prospector Limpet Controller'
p1768
NS'1'
S'A'
tp1769
a(dp1770
g7
F1.3
saa(lp1771
(g1768
NS'1'
S'B'
tp1772
a(dp1773
g7
I2
saa(lp1774
(g1768
NS'1'
S'C'
tp1775
a(dp1776
g7
F1.3
saa(lp1777
(g1768
NS'1'
S'D'
tp1778
a(dp1779
g7
F0.5
saa(lp1780
(g1768
NS'1'
S'E'
tp1781
a(dp1782
g7
F1.3
saa(lp1783
(g1768
NS'3'
S'A'
tp1784
a(dp1785
g7
I5
saa(lp1786
(g1768
NS'3'
S'B'
tp1787
a(dp1788
g7
I8
saa(lp1789
(g1768
NS'3'
S'C'
tp1790
a(dp1791
g7
I5
saa(lp1792
(g1768
NS'3'
S'D'
tp1793
a(dp1794
g7
I2
saa(lp1795
(g1768
NS'3'
S'E'
tp1796
a(dp1797
g7
I5
saa(lp1798
(g1768
NS'5'
S'A'
tp1799
a(dp1800
g7
I20
saa(lp1801
(g1768
NS'5'
S'B'
tp1802
a(dp1803
g7
I32
saa(lp1804
(g1768
NS'5'
S'C'
tp1805
a(dp1806
g7
I20
saa(lp1807
(g1768
NS'5'
S'D'
tp1808
a(dp1809
g7
I8
saa(lp1810
(g1768
NS'5'
S'E'
tp1811
a(dp1812
g7
I20
saa(lp1813
(g1768
NS'7'
S'A'
tp1814
a(dp1815
g7
I80
saa(lp1816
(g1768
NS'7'
S'B'
tp1817
a(dp1818
g7
I128
saa(lp1819
(g1768
NS'7'
S'C'
tp1820
a(dp1821
g7
I80
saa(lp1822
(g1768
NS'7'
S'D'
tp1823
a(dp1824
g7
I32
saa(lp1825
(g1768
NS'7'
S'E'
tp1826
a(dp1827
g7
I80
saa(lp1828
(S'Pulse Disruptor Laser'
p1829
NS'2'
S'E'
tp1830
a(dp1831
g7
I4
saa(lp1832
(S'Pulse Laser'
p1833
NS'1'
S'F'
tp1834
a(dp1835
g7
I2
saa(lp1836
(g1833
NS'1'
S'G'
tp1837
a(dp1838
g7
I2
saa(lp1839
(g1833
NS'2'
S'E'
tp1840
a(dp1841
g7
I4
saa(lp1842
(g1833
NS'2'
S'F'
tp1843
a(dp1844
g7
I4
saa(lp1845
(g1833
NS'3'
S'D'
tp1846
a(dp1847
g7
I8
saa(lp1848
(g1833
NS'3'
S'E'
tp1849
a(dp1850
g7
I8
saa(lp1851
(g1833
NS'3'
S'F'
tp1852
a(dp1853
g7
I8
saa(lp1854
(g1833
NS'4'
S'A'
tp1855
a(dp1856
g7
I16
saa(lp1857
(S'Rail Gun'
p1858
NS'1'
S'D'
tp1859
a(dp1860
g7
I2
saa(lp1861
(g1858
NS'2'
S'B'
tp1862
a(dp1863
g7
I4
saa(lp1864
(S'Reactive Surface Composite'
p1865
g1077
S'1'
S'I'
tp1866
a(dp1867
g7
I5
saa(lp1868
(g1865
g1081
S'1'
S'I'
tp1869
a(dp1870
g7
I60
saa(lp1871
(g1865
g1085
S'1'
S'I'
tp1872
a(dp1873
g7
I42
saa(lp1874
(g1865
g1089
S'1'
S'I'
tp1875
a(dp1876
g7
I42
saa(lp1877
(g1865
g1093
S'1'
S'I'
tp1878
a(dp1879
g7
I165
saa(lp1880
(g1865
g1097
S'1'
S'I'
tp1881
a(dp1882
g7
I27
saa(lp1883
(g1865
g1101
S'1'
S'I'
tp1884
a(dp1885
g7
I27
saa(lp1886
(g1865
g1105
S'1'
S'I'
tp1887
a(dp1888
g7
I47
saa(lp1889
(g1865
g1109
S'1'
S'I'
tp1890
a(dp1891
g7
I26
saa(lp1892
(g1865
g1113
S'1'
S'I'
tp1893
a(dp1894
g7
I63
saa(lp1895
(g1865
g1117
S'1'
S'I'
tp1896
a(dp1897
g7
I8
saa(lp1898
(g1865
g1121
S'1'
S'I'
tp1899
a(dp1900
g7
I87
saa(lp1901
(g1865
g1125
S'1'
S'I'
tp1902
a(dp1903
g7
I60
saa(lp1904
(g1865
g1129
S'1'
S'I'
tp1905
a(dp1906
g7
I87
saa(lp1907
(g1865
g1133
S'1'
S'I'
tp1908
a(dp1909
g7
I87
saa(lp1910
(g1865
g1137
S'1'
S'I'
tp1911
a(dp1912
g7
I38
saa(lp1913
(g1865
g1141
S'1'
S'I'
tp1914
a(dp1915
g7
I2
saa(lp1916
(g1865
g1145
S'1'
S'I'
tp1917
a(dp1918
g7
I60
saa(lp1919
(g1865
g1149
S'1'
S'I'
tp1920
a(dp1921
g7
I8
saa(lp1922
(g1865
g1153
S'1'
S'I'
tp1923
a(dp1924
g7
I60
saa(lp1925
(g1865
g1157
S'1'
S'I'
tp1926
a(dp1927
g7
I8
saa(lp1928
(g1865
g1161
S'1'
S'I'
tp1929
a(dp1930
g7
I23
saa(lp1931
(g1865
g1165
S'1'
S'I'
tp1932
a(dp1933
g7
I87
saa(lp1934
(g1865
g1169
S'1'
S'I'
tp1935
a(dp1936
g7
I53
saa(lp1937
(g1865
g1173
S'1'
S'I'
tp1938
a(dp1939
g7
I4
saa(lp1940
(g1865
g1177
S'1'
S'I'
tp1941
a(dp1942
g7
I23
saa(lp1943
(g1865
g1181
S'1'
S'I'
tp1944
a(dp1945
g7
I63
saa(lp1946
(g1865
g1185
S'1'
S'I'
tp1947
a(dp1948
g7
I150
saa(lp1949
(g1865
g1189
S'1'
S'I'
tp1950
a(dp1951
g7
I9
saa(lp1952
(g1865
g1193
S'1'
S'I'
tp1953
a(dp1954
g7
I9
saa(lp1955
(g1865
g1197
S'1'
S'I'
tp1956
a(dp1957
g7
I35
saa(lp1958
(S'Refinery'
p1959
NS'1'
S'A'
tp1960
a(dp1961
g7
I0
saa(lp1962
(g1959
NS'1'
S'B'
tp1963
a(dp1964
g7
I0
saa(lp1965
(g1959
NS'1'
S'C'
tp1966
a(dp1967
g7
I0
saa(lp1968
(g1959
NS'1'
S'D'
tp1969
a(dp1970
g7
I0
saa(lp1971
(g1959
NS'1'
S'E'
tp1972
a(dp1973
g7
I0
saa(lp1974
(g1959
NS'2'
S'A'
tp1975
a(dp1976
g7
I0
saa(lp1977
(g1959
NS'2'
S'B'
tp1978
a(dp1979
g7
I0
saa(lp1980
(g1959
NS'2'
S'C'
tp1981
a(dp1982
g7
I0
saa(lp1983
(g1959
NS'2'
S'D'
tp1984
a(dp1985
g7
I0
saa(lp1986
(g1959
NS'2'
S'E'
tp1987
a(dp1988
g7
I0
saa(lp1989
(g1959
NS'3'
S'A'
tp1990
a(dp1991
g7
I0
saa(lp1992
(g1959
NS'3'
S'B'
tp1993
a(dp1994
g7
I0
saa(lp1995
(g1959
NS'3'
S'C'
tp1996
a(dp1997
g7
I0
saa(lp1998
(g1959
NS'3'
S'D'
tp1999
a(dp2000
g7
I0
saa(lp2001
(g1959
NS'3'
S'E'
tp2002
a(dp2003
g7
I0
saa(lp2004
(g1959
NS'4'
S'A'
tp2005
a(dp2006
g7
I0
saa(lp2007
(g1959
NS'4'
S'B'
tp2008
a(dp2009
g7
I0
saa(lp2010
(g1959
NS'4'
S'C'
tp2011
a(dp2012
g7
I0
saa(lp2013
(g1959
NS'4'
S'D'
tp2014
a(dp2015
g7
I0
saa(lp2016
(g1959
NS'4'
S'E'
tp2017
a(dp2018
g7
I0
saa(lp2019
(S'Reinforced Alloy'
p2020
g1077
S'1'
S'I'
tp2021
a(dp2022
g7
I3
saa(lp2023
(g2020
g1081
S'1'
S'I'
tp2024
a(dp2025
g7
I30
saa(lp2026
(g2020
g1085
S'1'
S'I'
tp2027
a(dp2028
g7
I21
saa(lp2029
(g2020
g1089
S'1'
S'I'
tp2030
a(dp2031
g7
I21
saa(lp2032
(g2020
g1093
S'1'
S'I'
tp2033
a(dp2034
g7
I83
saa(lp2035
(g2020
g1097
S'1'
S'I'
tp2036
a(dp2037
g7
I14
saa(lp2038
(g2020
g1101
S'1'
S'I'
tp2039
a(dp2040
g7
I14
saa(lp2041
(g2020
g1105
S'1'
S'I'
tp2042
a(dp2043
g7
I23
saa(lp2044
(g2020
g1109
S'1'
S'I'
tp2045
a(dp2046
g7
I13
saa(lp2047
(g2020
g1113
S'1'
S'I'
tp2048
a(dp2049
g7
I32
saa(lp2050
(g2020
g1117
S'1'
S'I'
tp2051
a(dp2052
g7
I4
saa(lp2053
(g2020
g1121
S'1'
S'I'
tp2054
a(dp2055
g7
I44
saa(lp2056
(g2020
g1125
S'1'
S'I'
tp2057
a(dp2058
g7
I30
saa(lp2059
(g2020
g1129
S'1'
S'I'
tp2060
a(dp2061
g7
I44
saa(lp2062
(g2020
g1133
S'1'
S'I'
tp2063
a(dp2064
g7
I44
saa(lp2065
(g2020
g1137
S'1'
S'I'
tp2066
a(dp2067
g7
I19
saa(lp2068
(g2020
g1141
S'1'
S'I'
tp2069
a(dp2070
g7
I1
saa(lp2071
(g2020
g1145
S'1'
S'I'
tp2072
a(dp2073
g7
I30
saa(lp2074
(g2020
g1149
S'1'
S'I'
tp2075
a(dp2076
g7
I4
saa(lp2077
(g2020
g1153
S'1'
S'I'
tp2078
a(dp2079
g7
I30
saa(lp2080
(g2020
g1157
S'1'
S'I'
tp2081
a(dp2082
g7
I4
saa(lp2083
(g2020
g1161
S'1'
S'I'
tp2084
a(dp2085
g7
I12
saa(lp2086
(g2020
g1165
S'1'
S'I'
tp2087
a(dp2088
g7
I21
saa(lp2089
(g2020
g1169
S'1'
S'I'
tp2090
a(dp2091
g7
I26
saa(lp2092
(g2020
g1173
S'1'
S'I'
tp2093
a(dp2094
g7
I2
saa(lp2095
(g2020
g1177
S'1'
S'I'
tp2096
a(dp2097
g7
I12
saa(lp2098
(g2020
g1181
S'1'
S'I'
tp2099
a(dp2100
g7
I32
saa(lp2101
(g2020
g1185
S'1'
S'I'
tp2102
a(dp2103
g7
I75
saa(lp2104
(g2020
g1189
S'1'
S'I'
tp2105
a(dp2106
g7
I5
saa(lp2107
(g2020
g1193
S'1'
S'I'
tp2108
a(dp2109
g7
I5
saa(lp2110
(g2020
g1197
S'1'
S'I'
tp2111
a(dp2112
g7
I17
saa(lp2113
(S'Remote Release Flak Launcher'
p2114
NS'2'
S'B'
tp2115
a(dp2116
g7
I4
saa(lp2117
(S'Repair Limpet Controller'
p2118
NS'1'
S'A'
tp2119
ag1770
aa(lp2120
(g2118
NS'1'
S'B'
tp2121
ag1773
aa(lp2122
(g2118
NS'1'
S'C'
tp2123
ag1776
aa(lp2124
(g2118
NS'1'
S'D'
tp2125
ag1779
aa(lp2126
(g2118
NS'1'
S'E'
tp2127
ag1782
aa(lp2128
(g2118
NS'3'
S'A'
tp2129
ag1785
aa(lp2130
(g2118
NS'3'
S'B'
tp2131
ag1788
aa(lp2132
(g2118
NS'3'
S'C'
tp2133
ag1791
aa(lp2134
(g2118
NS'3'
S'D'
tp2135
ag1794
aa(lp2136
(g2118
NS'3'
S'E'
tp2137
ag1797
aa(lp2138
(g2118
NS'5'
S'A'
tp2139
ag1800
aa(lp2140
(g2118
NS'5'
S'B'
tp2141
ag1803
aa(lp2142
(g2118
NS'5'
S'C'
tp2143
ag1806
aa(lp2144
(g2118
NS'5'
S'D'
tp2145
ag1809
aa(lp2146
(g2118
NS'5'
S'E'
tp2147
ag1812
aa(lp2148
(g2118
NS'7'
S'A'
tp2149
ag1815
aa(lp2150
(g2118
NS'7'
S'B'
tp2151
ag1818
aa(lp2152
(g2118
NS'7'
S'C'
tp2153
ag1821
aa(lp2154
(g2118
NS'7'
S'D'
tp2155
ag1824
aa(lp2156
(g2118
NS'7'
S'E'
tp2157
ag1827
aa(lp2158
(S'Research Limpet Controller'
p2159
NS'1'
S'A'
tp2160
ag1770
aa(lp2161
(g2159
NS'1'
S'B'
tp2162
ag1773
aa(lp2163
(g2159
NS'1'
S'C'
tp2164
ag1776
aa(lp2165
(g2159
NS'1'
S'D'
tp2166
ag1779
aa(lp2167
(g2159
NS'1'
S'E'
tp2168
ag1782
aa(lp2169
(g2159
NS'3'
S'A'
tp2170
ag1785
aa(lp2171
(g2159
NS'3'
S'B'
tp2172
ag1788
aa(lp2173
(g2159
NS'3'
S'C'
tp2174
ag1791
aa(lp2175
(g2159
NS'3'
S'D'
tp2176
ag1794
aa(lp2177
(g2159
NS'3'
S'E'
tp2178
ag1797
aa(lp2179
(g2159
NS'5'
S'A'
tp2180
ag1800
aa(lp2181
(g2159
NS'5'
S'B'
tp2182
ag1803
aa(lp2183
(g2159
NS'5'
S'C'
tp2184
ag1806
aa(lp2185
(g2159
NS'5'
S'D'
tp2186
ag1809
aa(lp2187
(g2159
NS'5'
S'E'
tp2188
ag1812
aa(lp2189
(g2159
NS'7'
S'A'
tp2190
ag1815
aa(lp2191
(g2159
NS'7'
S'B'
tp2192
ag1818
aa(lp2193
(g2159
NS'7'
S'C'
tp2194
ag1821
aa(lp2195
(g2159
NS'7'
S'D'
tp2196
ag1824
aa(lp2197
(g2159
NS'7'
S'E'
tp2198
ag1827
aa(lp2199
(S'Retributor Beam Laser'
p2200
NS'1'
S'E'
tp2201
a(dp2202
g7
I2
saa(lp2203
(S'Rocket Propelled FSD Disruptor'
p2204
NS'2'
S'B'
tp2205
a(dp2206
g7
I4
saa(lp2207
(S'Sensors'
p2208
NS'1'
S'A'
tp2209
a(dp2210
g7
F1.3
saa(lp2211
(g2208
NS'1'
S'B'
tp2212
a(dp2213
g7
I2
saa(lp2214
(g2208
NS'1'
S'C'
tp2215
a(dp2216
g7
F1.3
saa(lp2217
(g2208
NS'1'
S'D'
tp2218
a(dp2219
g7
F0.5
saa(lp2220
(g2208
NS'1'
S'E'
tp2221
a(dp2222
g7
F1.3
saa(lp2223
(g2208
NS'2'
S'A'
tp2224
a(dp2225
g7
F2.5
saa(lp2226
(g2208
NS'2'
S'B'
tp2227
a(dp2228
g7
I4
saa(lp2229
(g2208
NS'2'
S'C'
tp2230
a(dp2231
g7
F2.5
saa(lp2232
(g2208
NS'2'
S'D'
tp2233
a(dp2234
g7
I1
saa(lp2235
(g2208
NS'2'
S'E'
tp2236
a(dp2237
g7
F2.5
saa(lp2238
(g2208
NS'3'
S'A'
tp2239
a(dp2240
g7
I5
saa(lp2241
(g2208
NS'3'
S'B'
tp2242
a(dp2243
g7
I8
saa(lp2244
(g2208
NS'3'
S'C'
tp2245
a(dp2246
g7
I5
saa(lp2247
(g2208
NS'3'
S'D'
tp2248
a(dp2249
g7
I2
saa(lp2250
(g2208
NS'3'
S'E'
tp2251
a(dp2252
g7
I5
saa(lp2253
(g2208
NS'4'
S'A'
tp2254
a(dp2255
g7
I10
saa(lp2256
(g2208
NS'4'
S'B'
tp2257
a(dp2258
g7
I16
saa(lp2259
(g2208
NS'4'
S'C'
tp2260
a(dp2261
g7
I10
saa(lp2262
(g2208
NS'4'
S'D'
tp2263
a(dp2264
g7
I4
saa(lp2265
(g2208
NS'4'
S'E'
tp2266
a(dp2267
g7
I10
saa(lp2268
(g2208
NS'5'
S'A'
tp2269
a(dp2270
g7
I20
saa(lp2271
(g2208
NS'5'
S'B'
tp2272
a(dp2273
g7
I32
saa(lp2274
(g2208
NS'5'
S'C'
tp2275
a(dp2276
g7
I20
saa(lp2277
(g2208
NS'5'
S'D'
tp2278
a(dp2279
g7
I8
saa(lp2280
(g2208
NS'5'
S'E'
tp2281
a(dp2282
g7
I20
saa(lp2283
(g2208
NS'6'
S'A'
tp2284
a(dp2285
g7
I40
saa(lp2286
(g2208
NS'6'
S'B'
tp2287
a(dp2288
g7
I64
saa(lp2289
(g2208
NS'6'
S'C'
tp2290
a(dp2291
g7
I40
saa(lp2292
(g2208
NS'6'
S'D'
tp2293
a(dp2294
g7
I16
saa(lp2295
(g2208
NS'6'
S'E'
tp2296
a(dp2297
g7
I40
saa(lp2298
(g2208
NS'7'
S'A'
tp2299
a(dp2300
g7
I80
saa(lp2301
(g2208
NS'7'
S'B'
tp2302
a(dp2303
g7
I128
saa(lp2304
(g2208
NS'7'
S'C'
tp2305
a(dp2306
g7
I80
saa(lp2307
(g2208
NS'7'
S'D'
tp2308
a(dp2309
g7
I32
saa(lp2310
(g2208
NS'7'
S'E'
tp2311
a(dp2312
g7
I80
saa(lp2313
(g2208
NS'8'
S'A'
tp2314
a(dp2315
g7
I160
saa(lp2316
(g2208
NS'8'
S'B'
tp2317
a(dp2318
g7
I256
saa(lp2319
(g2208
NS'8'
S'C'
tp2320
a(dp2321
g7
I160
saa(lp2322
(g2208
NS'8'
S'D'
tp2323
a(dp2324
g7
I64
saa(lp2325
(g2208
NS'8'
S'E'
tp2326
a(dp2327
g7
I160
saa(lp2328
(S'Shield Booster'
p2329
NS'0'
S'A'
tp2330
a(dp2331
g7
F3.5
saa(lp2332
(g2329
NS'0'
S'B'
tp2333
a(dp2334
g7
I3
saa(lp2335
(g2329
NS'0'
S'C'
tp2336
a(dp2337
g7
I2
saa(lp2338
(g2329
NS'0'
S'D'
tp2339
a(dp2340
g7
I1
saa(lp2341
(g2329
NS'0'
S'E'
tp2342
a(dp2343
g7
F0.5
saa(lp2344
(S'Shield Cell Bank'
p2345
NS'1'
S'A'
tp2346
a(dp2347
g7
F1.3
saa(lp2348
(g2345
NS'1'
S'B'
tp2349
a(dp2350
g7
I2
saa(lp2351
(g2345
NS'1'
S'C'
tp2352
a(dp2353
g7
F1.3
saa(lp2354
(g2345
NS'1'
S'D'
tp2355
a(dp2356
g7
F0.5
saa(lp2357
(g2345
NS'1'
S'E'
tp2358
a(dp2359
g7
F1.3
saa(lp2360
(g2345
NS'2'
S'A'
tp2361
a(dp2362
g7
F2.5
saa(lp2363
(g2345
NS'2'
S'B'
tp2364
a(dp2365
g7
I4
saa(lp2366
(g2345
NS'2'
S'C'
tp2367
a(dp2368
g7
F2.5
saa(lp2369
(g2345
NS'2'
S'D'
tp2370
a(dp2371
g7
I1
saa(lp2372
(g2345
NS'2'
S'E'
tp2373
a(dp2374
g7
F2.5
saa(lp2375
(g2345
NS'3'
S'A'
tp2376
a(dp2377
g7
I5
saa(lp2378
(g2345
NS'3'
S'B'
tp2379
a(dp2380
g7
I8
saa(lp2381
(g2345
NS'3'
S'C'
tp2382
a(dp2383
g7
I5
saa(lp2384
(g2345
NS'3'
S'D'
tp2385
a(dp2386
g7
I2
saa(lp2387
(g2345
NS'3'
S'E'
tp2388
a(dp2389
g7
I5
saa(lp2390
(g2345
NS'4'
S'A'
tp2391
a(dp2392
g7
I10
saa(lp2393
(g2345
NS'4'
S'B'
tp2394
a(dp2395
g7
I16
saa(lp2396
(g2345
NS'4'
S'C'
tp2397
a(dp2398
g7
I10
saa(lp2399
(g2345
NS'4'
S'D'
tp2400
a(dp2401
g7
I4
saa(lp2402
(g2345
NS'4'
S'E'
tp2403
a(dp2404
g7
I10
saa(lp2405
(g2345
NS'5'
S'A'
tp2406
a(dp2407
g7
I20
saa(lp2408
(g2345
NS'5'
S'B'
tp2409
a(dp2410
g7
I32
saa(lp2411
(g2345
NS'5'
S'C'
tp2412
a(dp2413
g7
I20
saa(lp2414
(g2345
NS'5'
S'D'
tp2415
a(dp2416
g7
I8
saa(lp2417
(g2345
NS'5'
S'E'
tp2418
a(dp2419
g7
I20
saa(lp2420
(g2345
NS'6'
S'A'
tp2421
a(dp2422
g7
I40
saa(lp2423
(g2345
NS'6'
S'B'
tp2424
a(dp2425
g7
I64
saa(lp2426
(g2345
NS'6'
S'C'
tp2427
a(dp2428
g7
I40
saa(lp2429
(g2345
NS'6'
S'D'
tp2430
a(dp2431
g7
I16
saa(lp2432
(g2345
NS'6'
S'E'
tp2433
a(dp2434
g7
I40
saa(lp2435
(g2345
NS'7'
S'A'
tp2436
a(dp2437
g7
I80
saa(lp2438
(g2345
NS'7'
S'B'
tp2439
a(dp2440
g7
I128
saa(lp2441
(g2345
NS'7'
S'C'
tp2442
a(dp2443
g7
I80
saa(lp2444
(g2345
NS'7'
S'D'
tp2445
a(dp2446
g7
I32
saa(lp2447
(g2345
NS'7'
S'E'
tp2448
a(dp2449
g7
I80
saa(lp2450
(g2345
NS'8'
S'A'
tp2451
a(dp2452
g7
I160
saa(lp2453
(g2345
NS'8'
S'B'
tp2454
a(dp2455
g7
I256
saa(lp2456
(g2345
NS'8'
S'C'
tp2457
a(dp2458
g7
I160
saa(lp2459
(g2345
NS'8'
S'D'
tp2460
a(dp2461
g7
I64
saa(lp2462
(g2345
NS'8'
S'E'
tp2463
a(dp2464
g7
I160
saa(lp2465
(S'Shield Generator'
p2466
NS'1'
S'A'
tp2467
a(dp2468
g7
F1.3
saa(lp2469
(g2466
NS'2'
S'A'
tp2470
a(dp2471
g7
F2.5
saa(lp2472
(g2466
NS'2'
S'B'
tp2473
a(dp2474
g7
I4
saa(lp2475
(g2466
NS'2'
S'C'
tp2476
a(dp2477
g7
F2.5
saa(lp2478
(g2466
NS'2'
S'D'
tp2479
a(dp2480
g7
I1
saa(lp2481
(g2466
NS'2'
S'E'
tp2482
a(dp2483
g7
F2.5
saa(lp2484
(g2466
NS'3'
S'A'
tp2485
a(dp2486
g7
I5
saa(lp2487
(g2466
NS'3'
S'B'
tp2488
a(dp2489
g7
I8
saa(lp2490
(g2466
NS'3'
S'C'
tp2491
a(dp2492
g7
I5
saa(lp2493
(g2466
NS'3'
S'D'
tp2494
a(dp2495
g7
I2
saa(lp2496
(g2466
NS'3'
S'E'
tp2497
a(dp2498
g7
I5
saa(lp2499
(g2466
NS'4'
S'A'
tp2500
a(dp2501
g7
I10
saa(lp2502
(g2466
NS'4'
S'B'
tp2503
a(dp2504
g7
I16
saa(lp2505
(g2466
NS'4'
S'C'
tp2506
a(dp2507
g7
I10
saa(lp2508
(g2466
NS'4'
S'D'
tp2509
a(dp2510
g7
I4
saa(lp2511
(g2466
NS'4'
S'E'
tp2512
a(dp2513
g7
I10
saa(lp2514
(g2466
NS'5'
S'A'
tp2515
a(dp2516
g7
I20
saa(lp2517
(g2466
NS'5'
S'B'
tp2518
a(dp2519
g7
I32
saa(lp2520
(g2466
NS'5'
S'C'
tp2521
a(dp2522
g7
I20
saa(lp2523
(g2466
NS'5'
S'D'
tp2524
a(dp2525
g7
I8
saa(lp2526
(g2466
NS'5'
S'E'
tp2527
a(dp2528
g7
I20
saa(lp2529
(g2466
NS'6'
S'A'
tp2530
a(dp2531
g7
I40
saa(lp2532
(g2466
NS'6'
S'B'
tp2533
a(dp2534
g7
I64
saa(lp2535
(g2466
NS'6'
S'C'
tp2536
a(dp2537
g7
I40
saa(lp2538
(g2466
NS'6'
S'D'
tp2539
a(dp2540
g7
I16
saa(lp2541
(g2466
NS'6'
S'E'
tp2542
a(dp2543
g7
I40
saa(lp2544
(g2466
NS'7'
S'A'
tp2545
a(dp2546
g7
I80
saa(lp2547
(g2466
NS'7'
S'B'
tp2548
a(dp2549
g7
I128
saa(lp2550
(g2466
NS'7'
S'C'
tp2551
a(dp2552
g7
I80
saa(lp2553
(g2466
NS'7'
S'D'
tp2554
a(dp2555
g7
I32
saa(lp2556
(g2466
NS'7'
S'E'
tp2557
a(dp2558
g7
I80
saa(lp2559
(g2466
NS'8'
S'A'
tp2560
a(dp2561
g7
I160
saa(lp2562
(g2466
NS'8'
S'B'
tp2563
a(dp2564
g7
I256
saa(lp2565
(g2466
NS'8'
S'C'
tp2566
a(dp2567
g7
I160
saa(lp2568
(g2466
NS'8'
S'D'
tp2569
a(dp2570
g7
I64
saa(lp2571
(g2466
NS'8'
S'E'
tp2572
a(dp2573
g7
I160
saa(lp2574
(S'Shock Mine Launcher'
p2575
NS'1'
S'I'
tp2576
a(dp2577
g7
I2
saa(lp2578
(S'Standard Docking Computer'
p2579
NS'1'
S'E'
tp2580
a(dp2581
g7
I0
saa(lp2582
(S'Thrusters'
p2583
NS'2'
S'A'
tp2584
a(dp2585
g7
F2.5
saa(lp2586
(g2583
NS'2'
S'B'
tp2587
a(dp2588
g7
I4
saa(lp2589
(g2583
NS'2'
S'C'
tp2590
a(dp2591
g7
F2.5
saa(lp2592
(g2583
NS'2'
S'D'
tp2593
a(dp2594
g7
I1
saa(lp2595
(g2583
NS'2'
S'E'
tp2596
a(dp2597
g7
F2.5
saa(lp2598
(g2583
NS'3'
S'A'
tp2599
a(dp2600
g7
I5
saa(lp2601
(g2583
NS'3'
S'B'
tp2602
a(dp2603
g7
I8
saa(lp2604
(g2583
NS'3'
S'C'
tp2605
a(dp2606
g7
I5
saa(lp2607
(g2583
NS'3'
S'D'
tp2608
a(dp2609
g7
I2
saa(lp2610
(g2583
NS'3'
S'E'
tp2611
a(dp2612
g7
I5
saa(lp2613
(g2583
NS'4'
S'A'
tp2614
a(dp2615
g7
I10
saa(lp2616
(g2583
NS'4'
S'B'
tp2617
a(dp2618
g7
I16
saa(lp2619
(g2583
NS'4'
S'C'
tp2620
a(dp2621
g7
I10
saa(lp2622
(g2583
NS'4'
S'D'
tp2623
a(dp2624
g7
I4
saa(lp2625
(g2583
NS'4'
S'E'
tp2626
a(dp2627
g7
I10
saa(lp2628
(g2583
NS'5'
S'A'
tp2629
a(dp2630
g7
I20
saa(lp2631
(g2583
NS'5'
S'B'
tp2632
a(dp2633
g7
I32
saa(lp2634
(g2583
NS'5'
S'C'
tp2635
a(dp2636
g7
I20
saa(lp2637
(g2583
NS'5'
S'D'
tp2638
a(dp2639
g7
I8
saa(lp2640
(g2583
NS'5'
S'E'
tp2641
a(dp2642
g7
I20
saa(lp2643
(g2583
NS'6'
S'A'
tp2644
a(dp2645
g7
I40
saa(lp2646
(g2583
NS'6'
S'B'
tp2647
a(dp2648
g7
I64
saa(lp2649
(g2583
NS'6'
S'C'
tp2650
a(dp2651
g7
I40
saa(lp2652
(g2583
NS'6'
S'D'
tp2653
a(dp2654
g7
I16
saa(lp2655
(g2583
NS'6'
S'E'
tp2656
a(dp2657
g7
I40
saa(lp2658
(g2583
NS'7'
S'A'
tp2659
a(dp2660
g7
I80
saa(lp2661
(g2583
NS'7'
S'B'
tp2662
a(dp2663
g7
I128
saa(lp2664
(g2583
NS'7'
S'C'
tp2665
a(dp2666
g7
I80
saa(lp2667
(g2583
NS'7'
S'D'
tp2668
a(dp2669
g7
I32
saa(lp2670
(g2583
NS'7'
S'E'
tp2671
a(dp2672
g7
I80
saa(lp2673
(g2583
NS'8'
S'A'
tp2674
a(dp2675
g7
I160
saa(lp2676
(g2583
NS'8'
S'B'
tp2677
a(dp2678
g7
I256
saa(lp2679
(g2583
NS'8'
S'C'
tp2680
a(dp2681
g7
I160
saa(lp2682
(g2583
NS'8'
S'D'
tp2683
a(dp2684
g7
I64
saa(lp2685
(g2583
NS'8'
S'E'
tp2686
a(dp2687
g7
I160
saa(lp2688
(S'Torpedo Pylon'
p2689
NS'1'
S'I'
tp2690
a(dp2691
g7
I2
saa(lp2692
(g2689
NS'2'
S'I'
tp2693
a(dp2694
g7
I4
saa(lp2695
(S'Xeno Scanner'
p2696
NS'0'
S'E'
tp2697
a(dp2698
g7
F1.3
saatRp2699
.