ccollections
OrderedDict
p1
((lp2
(lp3
S'Adder'
p4
a(dp5
S'hullMass'
p6
I35
saa(lp7
S'Alliance Challenger'
p8
a(dp9
g6
I450
saa(lp10
S'Alliance Chieftain'
p11
a(dp12
g6
I400
saa(lp13
S'Alliance Crusader'
p14
a(dp15
g6
I500
saa(lp16
S'Anaconda'
p17
a(dp18
g6
I400
saa(lp19
S'Asp Explorer'
p20
a(dp21
g6
I280
saa(lp22
S'Asp Scout'
p23
a(dp24
g6
I150
saa(lp25
S'Beluga Liner'
p26
a(dp27
g6
I950
saa(lp28
S'Cobra MkIII'
p29
a(dp30
g6
I180
saa(lp31
S'Cobra MkIV'
p32
a(dp33
g6
I210
saa(lp34
S'Diamondback Explorer'
p35
a(dp36
g6
I260
saa(lp37
S'Diamondback Scout'
p38
a(dp39
g6
I170
saa(lp40
S'Dolphin'
p41
a(dp42
g6
I140
saa(lp43
S'Eagle'
p44
a(dp45
g6
I50
saa(lp46
S'Federal Assault Ship'
p47
a(dp48
g6
I480
saa(lp49
S'Federal Corvette'
p50
a(dp51
g6
I900
saa(lp52
S'Federal Dropship'
p53
a(dp54
g6
I580
saa(lp55
S'Federal Gunship'
p56
a(dp57
g6
I580
saa(lp58
S'Fer-de-Lance'
p59
a(dp60
g6
I250
saa(lp61
S'Hauler'
p62
a(dp63
g6
I14
saa(lp64
S'Imperial Clipper'
p65
a(dp66
g6
I400
saa(lp67
S'Imperial Courier'
p68
a(dp69
g6
I35
saa(lp70
S'Imperial Cutter'
p71
a(dp72
g6
I1100
saa(lp73
S'Imperial Eagle'
p74
a(dp75
g6
I50
saa(lp76
S'Keelback'
p77
a(dp78
g6
I180
saa(lp79
S'Krait MkII'
p80
a(dp81
g6
I320
saa(lp82
S'Orca'
p83
a(dp84
g6
I290
saa(lp85
S'Python'
p86
a(dp87
g6
I350
saa(lp88
S'Sidewinder'
p89
a(dp90
g6
I25
saa(lp91
S'Type-10 Defender'
p92
a(dp93
g6
I1200
saa(lp94
S'Type-6 Transporter'
p95
a(dp96
g6
I155
saa(lp97
S'Type-7 Transporter'
p98
a(dp99
g6
I350
saa(lp100
S'Type-9 Heavy'
p101
a(dp102
g6
I850
saa(lp103
S'Viper MkIII'
p104
a(dp105
g6
I50
saa(lp106
S'Viper MkIV'
p107
a(dp108
g6
I190
saa(lp109
S'Vulture'
p110
a(dp111
g6
I230
saatRp112
.