ccollections
OrderedDict
p1
((lp2
(lp3
S'Adder'
p4
a(dp5
S'hullMass'
p6
I35
saa(lp7
S'Anaconda'
p8
a(dp9
g6
I400
saa(lp10
S'Asp Explorer'
p11
a(dp12
g6
I280
saa(lp13
S'Asp Scout'
p14
a(dp15
g6
I150
saa(lp16
S'Beluga Liner'
p17
a(dp18
g6
I950
saa(lp19
S'Cobra MkIII'
p20
a(dp21
g6
I180
saa(lp22
S'Cobra MkIV'
p23
a(dp24
g6
I210
saa(lp25
S'Diamondback Explorer'
p26
a(dp27
g6
I260
saa(lp28
S'Diamondback Scout'
p29
a(dp30
g6
I170
saa(lp31
S'Dolphin'
p32
a(dp33
g6
I140
saa(lp34
S'Eagle'
p35
a(dp36
g6
I50
saa(lp37
S'Federal Assault Ship'
p38
a(dp39
g6
I480
saa(lp40
S'Federal Corvette'
p41
a(dp42
g6
I900
saa(lp43
S'Federal Dropship'
p44
a(dp45
g6
I580
saa(lp46
S'Federal Gunship'
p47
a(dp48
g6
I580
saa(lp49
S'Fer-de-Lance'
p50
a(dp51
g6
I250
saa(lp52
S'Hauler'
p53
a(dp54
g6
I14
saa(lp55
S'Imperial Clipper'
p56
a(dp57
g6
I400
saa(lp58
S'Imperial Courier'
p59
a(dp60
g6
I35
saa(lp61
S'Imperial Cutter'
p62
a(dp63
g6
I1100
saa(lp64
S'Imperial Eagle'
p65
a(dp66
g6
I50
saa(lp67
S'Keelback'
p68
a(dp69
g6
I180
saa(lp70
S'Orca'
p71
a(dp72
g6
I290
saa(lp73
S'Python'
p74
a(dp75
g6
I350
saa(lp76
S'Sidewinder'
p77
a(dp78
g6
I25
saa(lp79
S'Type-10 Defender'
p80
a(dp81
g6
I1200
saa(lp82
S'Type-6 Transporter'
p83
a(dp84
g6
I155
saa(lp85
S'Type-7 Transporter'
p86
a(dp87
g6
I420
saa(lp88
S'Type-9 Heavy'
p89
a(dp90
g6
I1000
saa(lp91
S'Viper MkIII'
p92
a(dp93
g6
I50
saa(lp94
S'Viper MkIV'
p95
a(dp96
g6
I190
saa(lp97
S'Vulture'
p98
a(dp99
g6
I230
saatRp100
.