ccollections
OrderedDict
p1
((lp2
(lp3
S'Adder'
p4
a(dp5
S'hullMass'
p6
I35
saa(lp7
S'Alliance Challenger'
p8
a(dp9
g6
I450
saa(lp10
S'Alliance Chieftain'
p11
a(dp12
g6
I400
saa(lp13
S'Anaconda'
p14
a(dp15
g6
I400
saa(lp16
S'Asp Explorer'
p17
a(dp18
g6
I280
saa(lp19
S'Asp Scout'
p20
a(dp21
g6
I150
saa(lp22
S'Beluga Liner'
p23
a(dp24
g6
I950
saa(lp25
S'Cobra MkIII'
p26
a(dp27
g6
I180
saa(lp28
S'Cobra MkIV'
p29
a(dp30
g6
I210
saa(lp31
S'Diamondback Explorer'
p32
a(dp33
g6
I260
saa(lp34
S'Diamondback Scout'
p35
a(dp36
g6
I170
saa(lp37
S'Dolphin'
p38
a(dp39
g6
I140
saa(lp40
S'Eagle'
p41
a(dp42
g6
I50
saa(lp43
S'Federal Assault Ship'
p44
a(dp45
g6
I480
saa(lp46
S'Federal Corvette'
p47
a(dp48
g6
I900
saa(lp49
S'Federal Dropship'
p50
a(dp51
g6
I580
saa(lp52
S'Federal Gunship'
p53
a(dp54
g6
I580
saa(lp55
S'Fer-de-Lance'
p56
a(dp57
g6
I250
saa(lp58
S'Hauler'
p59
a(dp60
g6
I14
saa(lp61
S'Imperial Clipper'
p62
a(dp63
g6
I400
saa(lp64
S'Imperial Courier'
p65
a(dp66
g6
I35
saa(lp67
S'Imperial Cutter'
p68
a(dp69
g6
I1100
saa(lp70
S'Imperial Eagle'
p71
a(dp72
g6
I50
saa(lp73
S'Keelback'
p74
a(dp75
g6
I180
saa(lp76
S'Krait MkII'
p77
a(dp78
g6
I320
saa(lp79
S'Orca'
p80
a(dp81
g6
I290
saa(lp82
S'Python'
p83
a(dp84
g6
I350
saa(lp85
S'Sidewinder'
p86
a(dp87
g6
I25
saa(lp88
S'Type-10 Defender'
p89
a(dp90
g6
I1200
saa(lp91
S'Type-6 Transporter'
p92
a(dp93
g6
I155
saa(lp94
S'Type-7 Transporter'
p95
a(dp96
g6
I350
saa(lp97
S'Type-9 Heavy'
p98
a(dp99
g6
I850
saa(lp100
S'Viper MkIII'
p101
a(dp102
g6
I50
saa(lp103
S'Viper MkIV'
p104
a(dp105
g6
I190
saa(lp106
S'Vulture'
p107
a(dp108
g6
I230
saatRp109
.